Archive member included to satisfy reference by file (symbol)

/usr/lib/gcc/arm-none-eabi/10.3.1/thumb/v7-m/nofp/libgcc.a(_arm_muldf3.o)
                              CMakeFiles/Project.elf.dir/Code/Src/OneWrite.c.obj (__aeabi_dmul)
/usr/lib/gcc/arm-none-eabi/10.3.1/thumb/v7-m/nofp/libgcc.a(_arm_addsubdf3.o)
                              CMakeFiles/Project.elf.dir/Code/Src/OneWrite.c.obj (__aeabi_dsub)
/usr/lib/gcc/arm-none-eabi/10.3.1/thumb/v7-m/nofp/libgcc.a(_arm_muldivdf3.o)
                              CMakeFiles/Project.elf.dir/Code/Src/OneWrite.c.obj (__aeabi_ddiv)
/usr/lib/gcc/arm-none-eabi/10.3.1/thumb/v7-m/nofp/libgcc.a(_arm_truncdfsf2.o)
                              CMakeFiles/Project.elf.dir/Code/Src/OneWrite.c.obj (__aeabi_d2f)
/usr/lib/gcc/arm-none-eabi/10.3.1/thumb/v7-m/nofp/libgcc.a(_arm_addsubsf3.o)
                              CMakeFiles/Project.elf.dir/Code/Src/OneWrite.c.obj (__aeabi_ui2f)
/usr/lib/gcc/arm-none-eabi/10.3.1/../../../arm-none-eabi/lib/thumb/v7-m/nofp/libc_nano.a(lib_a-atexit.o)
                              /usr/lib/gcc/arm-none-eabi/10.3.1/../../../arm-none-eabi/lib/thumb/v7-m/nofp/crt0.o (atexit)
/usr/lib/gcc/arm-none-eabi/10.3.1/../../../arm-none-eabi/lib/thumb/v7-m/nofp/libc_nano.a(lib_a-exit.o)
                              /usr/lib/gcc/arm-none-eabi/10.3.1/../../../arm-none-eabi/lib/thumb/v7-m/nofp/crt0.o (exit)
/usr/lib/gcc/arm-none-eabi/10.3.1/../../../arm-none-eabi/lib/thumb/v7-m/nofp/libc_nano.a(lib_a-fini.o)
                              /usr/lib/gcc/arm-none-eabi/10.3.1/../../../arm-none-eabi/lib/thumb/v7-m/nofp/crt0.o (__libc_fini_array)
/usr/lib/gcc/arm-none-eabi/10.3.1/../../../arm-none-eabi/lib/thumb/v7-m/nofp/libc_nano.a(lib_a-impure.o)
                              /usr/lib/gcc/arm-none-eabi/10.3.1/../../../arm-none-eabi/lib/thumb/v7-m/nofp/libc_nano.a(lib_a-exit.o) (_global_impure_ptr)
/usr/lib/gcc/arm-none-eabi/10.3.1/../../../arm-none-eabi/lib/thumb/v7-m/nofp/libc_nano.a(lib_a-init.o)
                              /usr/lib/gcc/arm-none-eabi/10.3.1/../../../arm-none-eabi/lib/thumb/v7-m/nofp/crt0.o (__libc_init_array)
/usr/lib/gcc/arm-none-eabi/10.3.1/../../../arm-none-eabi/lib/thumb/v7-m/nofp/libc_nano.a(lib_a-memset.o)
                              /usr/lib/gcc/arm-none-eabi/10.3.1/../../../arm-none-eabi/lib/thumb/v7-m/nofp/crt0.o (memset)
/usr/lib/gcc/arm-none-eabi/10.3.1/../../../arm-none-eabi/lib/thumb/v7-m/nofp/libc_nano.a(lib_a-nano-vfprintf_float.o)
                              (_printf_float)
/usr/lib/gcc/arm-none-eabi/10.3.1/../../../arm-none-eabi/lib/thumb/v7-m/nofp/libc_nano.a(lib_a-nano-vfprintf_i.o)
                              /usr/lib/gcc/arm-none-eabi/10.3.1/../../../arm-none-eabi/lib/thumb/v7-m/nofp/libc_nano.a(lib_a-nano-vfprintf_float.o) (_printf_common)
/usr/lib/gcc/arm-none-eabi/10.3.1/../../../arm-none-eabi/lib/thumb/v7-m/nofp/libc_nano.a(lib_a-printf.o)
                              CMakeFiles/Project.elf.dir/User/main.c.obj (printf)
/usr/lib/gcc/arm-none-eabi/10.3.1/../../../arm-none-eabi/lib/thumb/v7-m/nofp/libc_nano.a(lib_a-puts.o)
                              CMakeFiles/Project.elf.dir/User/main.c.obj (puts)
/usr/lib/gcc/arm-none-eabi/10.3.1/../../../arm-none-eabi/lib/thumb/v7-m/nofp/libc_nano.a(lib_a-sprintf.o)
                              CMakeFiles/Project.elf.dir/User/main.c.obj (sprintf)
/usr/lib/gcc/arm-none-eabi/10.3.1/../../../arm-none-eabi/lib/thumb/v7-m/nofp/libc_nano.a(lib_a-strcpy.o)
                              CMakeFiles/Project.elf.dir/Code/Src/GPS_Usart.c.obj (strcpy)
/usr/lib/gcc/arm-none-eabi/10.3.1/../../../arm-none-eabi/lib/thumb/v7-m/nofp/libc_nano.a(lib_a-strlen-stub.o)
                              CMakeFiles/Project.elf.dir/User/main.c.obj (strlen)
/usr/lib/gcc/arm-none-eabi/10.3.1/../../../arm-none-eabi/lib/thumb/v7-m/nofp/libc_nano.a(lib_a-strstr.o)
                              CMakeFiles/Project.elf.dir/Code/Src/GPS_Usart.c.obj (strstr)
/usr/lib/gcc/arm-none-eabi/10.3.1/../../../arm-none-eabi/lib/thumb/v7-m/nofp/libc_nano.a(lib_a-vsprintf.o)
                              CMakeFiles/Project.elf.dir/Code/Src/NBIOT_Usart.c.obj (vsprintf)
/usr/lib/gcc/arm-none-eabi/10.3.1/../../../arm-none-eabi/lib/thumb/v7-m/nofp/libc_nano.a(lib_a-wbuf.o)
                              /usr/lib/gcc/arm-none-eabi/10.3.1/../../../arm-none-eabi/lib/thumb/v7-m/nofp/libc_nano.a(lib_a-puts.o) (__swbuf_r)
/usr/lib/gcc/arm-none-eabi/10.3.1/../../../arm-none-eabi/lib/thumb/v7-m/nofp/libc_nano.a(lib_a-wsetup.o)
                              /usr/lib/gcc/arm-none-eabi/10.3.1/../../../arm-none-eabi/lib/thumb/v7-m/nofp/libc_nano.a(lib_a-puts.o) (__swsetup_r)
/usr/lib/gcc/arm-none-eabi/10.3.1/../../../arm-none-eabi/lib/thumb/v7-m/nofp/libc_nano.a(lib_a-__atexit.o)
                              /usr/lib/gcc/arm-none-eabi/10.3.1/../../../arm-none-eabi/lib/thumb/v7-m/nofp/libc_nano.a(lib_a-atexit.o) (__register_exitproc)
/usr/lib/gcc/arm-none-eabi/10.3.1/../../../arm-none-eabi/lib/thumb/v7-m/nofp/libc_nano.a(lib_a-__call_atexit.o)
                              /usr/lib/gcc/arm-none-eabi/10.3.1/../../../arm-none-eabi/lib/thumb/v7-m/nofp/libc_nano.a(lib_a-__atexit.o) (__call_exitprocs)
/usr/lib/gcc/arm-none-eabi/10.3.1/../../../arm-none-eabi/lib/thumb/v7-m/nofp/libc_nano.a(lib_a-dtoa.o)
                              /usr/lib/gcc/arm-none-eabi/10.3.1/../../../arm-none-eabi/lib/thumb/v7-m/nofp/libc_nano.a(lib_a-nano-vfprintf_float.o) (_dtoa_r)
/usr/lib/gcc/arm-none-eabi/10.3.1/../../../arm-none-eabi/lib/thumb/v7-m/nofp/libc_nano.a(lib_a-fflush.o)
                              /usr/lib/gcc/arm-none-eabi/10.3.1/../../../arm-none-eabi/lib/thumb/v7-m/nofp/libc_nano.a(lib_a-wbuf.o) (_fflush_r)
/usr/lib/gcc/arm-none-eabi/10.3.1/../../../arm-none-eabi/lib/thumb/v7-m/nofp/libc_nano.a(lib_a-findfp.o)
                              /usr/lib/gcc/arm-none-eabi/10.3.1/../../../arm-none-eabi/lib/thumb/v7-m/nofp/libc_nano.a(lib_a-printf.o) (__sinit)
/usr/lib/gcc/arm-none-eabi/10.3.1/../../../arm-none-eabi/lib/thumb/v7-m/nofp/libc_nano.a(lib_a-fwalk.o)
                              /usr/lib/gcc/arm-none-eabi/10.3.1/../../../arm-none-eabi/lib/thumb/v7-m/nofp/libc_nano.a(lib_a-findfp.o) (_fwalk)
/usr/lib/gcc/arm-none-eabi/10.3.1/../../../arm-none-eabi/lib/thumb/v7-m/nofp/libc_nano.a(lib_a-localeconv.o)
                              /usr/lib/gcc/arm-none-eabi/10.3.1/../../../arm-none-eabi/lib/thumb/v7-m/nofp/libc_nano.a(lib_a-nano-vfprintf_float.o) (_localeconv_r)
/usr/lib/gcc/arm-none-eabi/10.3.1/../../../arm-none-eabi/lib/thumb/v7-m/nofp/libc_nano.a(lib_a-makebuf.o)
                              /usr/lib/gcc/arm-none-eabi/10.3.1/../../../arm-none-eabi/lib/thumb/v7-m/nofp/libc_nano.a(lib_a-wsetup.o) (__smakebuf_r)
/usr/lib/gcc/arm-none-eabi/10.3.1/../../../arm-none-eabi/lib/thumb/v7-m/nofp/libc_nano.a(lib_a-malloc.o)
                              /usr/lib/gcc/arm-none-eabi/10.3.1/../../../arm-none-eabi/lib/thumb/v7-m/nofp/libc_nano.a(lib_a-dtoa.o) (malloc)
/usr/lib/gcc/arm-none-eabi/10.3.1/../../../arm-none-eabi/lib/thumb/v7-m/nofp/libc_nano.a(lib_a-memchr-stub.o)
                              /usr/lib/gcc/arm-none-eabi/10.3.1/../../../arm-none-eabi/lib/thumb/v7-m/nofp/libc_nano.a(lib_a-nano-vfprintf_i.o) (memchr)
/usr/lib/gcc/arm-none-eabi/10.3.1/../../../arm-none-eabi/lib/thumb/v7-m/nofp/libc_nano.a(lib_a-memcmp.o)
                              /usr/lib/gcc/arm-none-eabi/10.3.1/../../../arm-none-eabi/lib/thumb/v7-m/nofp/libc_nano.a(lib_a-strstr.o) (memcmp)
/usr/lib/gcc/arm-none-eabi/10.3.1/../../../arm-none-eabi/lib/thumb/v7-m/nofp/libc_nano.a(lib_a-memcpy.o)
                              /usr/lib/gcc/arm-none-eabi/10.3.1/../../../arm-none-eabi/lib/thumb/v7-m/nofp/libc_nano.a(lib_a-dtoa.o) (memcpy)
/usr/lib/gcc/arm-none-eabi/10.3.1/../../../arm-none-eabi/lib/thumb/v7-m/nofp/libc_nano.a(lib_a-mprec.o)
                              /usr/lib/gcc/arm-none-eabi/10.3.1/../../../arm-none-eabi/lib/thumb/v7-m/nofp/libc_nano.a(lib_a-dtoa.o) (_Balloc)
/usr/lib/gcc/arm-none-eabi/10.3.1/../../../arm-none-eabi/lib/thumb/v7-m/nofp/libc_nano.a(lib_a-nano-callocr.o)
                              /usr/lib/gcc/arm-none-eabi/10.3.1/../../../arm-none-eabi/lib/thumb/v7-m/nofp/libc_nano.a(lib_a-mprec.o) (_calloc_r)
/usr/lib/gcc/arm-none-eabi/10.3.1/../../../arm-none-eabi/lib/thumb/v7-m/nofp/libc_nano.a(lib_a-nano-freer.o)
                              /usr/lib/gcc/arm-none-eabi/10.3.1/../../../arm-none-eabi/lib/thumb/v7-m/nofp/libc_nano.a(lib_a-wsetup.o) (_free_r)
/usr/lib/gcc/arm-none-eabi/10.3.1/../../../arm-none-eabi/lib/thumb/v7-m/nofp/libc_nano.a(lib_a-nano-mallocr.o)
                              /usr/lib/gcc/arm-none-eabi/10.3.1/../../../arm-none-eabi/lib/thumb/v7-m/nofp/libc_nano.a(lib_a-findfp.o) (_malloc_r)
/usr/lib/gcc/arm-none-eabi/10.3.1/../../../arm-none-eabi/lib/thumb/v7-m/nofp/libc_nano.a(lib_a-nano-svfprintf.o)
                              /usr/lib/gcc/arm-none-eabi/10.3.1/../../../arm-none-eabi/lib/thumb/v7-m/nofp/libc_nano.a(lib_a-sprintf.o) (_svfprintf_r)
/usr/lib/gcc/arm-none-eabi/10.3.1/../../../arm-none-eabi/lib/thumb/v7-m/nofp/libc_nano.a(lib_a-nano-vfprintf.o)
                              /usr/lib/gcc/arm-none-eabi/10.3.1/../../../arm-none-eabi/lib/thumb/v7-m/nofp/libc_nano.a(lib_a-printf.o) (_vfprintf_r)
/usr/lib/gcc/arm-none-eabi/10.3.1/../../../arm-none-eabi/lib/thumb/v7-m/nofp/libc_nano.a(lib_a-sbrkr.o)
                              /usr/lib/gcc/arm-none-eabi/10.3.1/../../../arm-none-eabi/lib/thumb/v7-m/nofp/libc_nano.a(lib_a-nano-mallocr.o) (_sbrk_r)
/usr/lib/gcc/arm-none-eabi/10.3.1/../../../arm-none-eabi/lib/thumb/v7-m/nofp/libc_nano.a(lib_a-stdio.o)
                              /usr/lib/gcc/arm-none-eabi/10.3.1/../../../arm-none-eabi/lib/thumb/v7-m/nofp/libc_nano.a(lib_a-findfp.o) (__sread)
/usr/lib/gcc/arm-none-eabi/10.3.1/../../../arm-none-eabi/lib/thumb/v7-m/nofp/libc_nano.a(lib_a-strchr.o)
                              /usr/lib/gcc/arm-none-eabi/10.3.1/../../../arm-none-eabi/lib/thumb/v7-m/nofp/libc_nano.a(lib_a-strstr.o) (strchr)
/usr/lib/gcc/arm-none-eabi/10.3.1/../../../arm-none-eabi/lib/thumb/v7-m/nofp/libc_nano.a(lib_a-strnlen.o)
                              /usr/lib/gcc/arm-none-eabi/10.3.1/../../../arm-none-eabi/lib/thumb/v7-m/nofp/libc_nano.a(lib_a-strstr.o) (strnlen)
/usr/lib/gcc/arm-none-eabi/10.3.1/../../../arm-none-eabi/lib/thumb/v7-m/nofp/libc_nano.a(lib_a-writer.o)
                              /usr/lib/gcc/arm-none-eabi/10.3.1/../../../arm-none-eabi/lib/thumb/v7-m/nofp/libc_nano.a(lib_a-stdio.o) (_write_r)
/usr/lib/gcc/arm-none-eabi/10.3.1/../../../arm-none-eabi/lib/thumb/v7-m/nofp/libc_nano.a(lib_a-assert.o)
                              /usr/lib/gcc/arm-none-eabi/10.3.1/../../../arm-none-eabi/lib/thumb/v7-m/nofp/libc_nano.a(lib_a-dtoa.o) (__assert_func)
/usr/lib/gcc/arm-none-eabi/10.3.1/../../../arm-none-eabi/lib/thumb/v7-m/nofp/libc_nano.a(lib_a-closer.o)
                              /usr/lib/gcc/arm-none-eabi/10.3.1/../../../arm-none-eabi/lib/thumb/v7-m/nofp/libc_nano.a(lib_a-stdio.o) (_close_r)
/usr/lib/gcc/arm-none-eabi/10.3.1/../../../arm-none-eabi/lib/thumb/v7-m/nofp/libc_nano.a(lib_a-fprintf.o)
                              /usr/lib/gcc/arm-none-eabi/10.3.1/../../../arm-none-eabi/lib/thumb/v7-m/nofp/libc_nano.a(lib_a-assert.o) (fiprintf)
/usr/lib/gcc/arm-none-eabi/10.3.1/../../../arm-none-eabi/lib/thumb/v7-m/nofp/libc_nano.a(lib_a-fstatr.o)
                              /usr/lib/gcc/arm-none-eabi/10.3.1/../../../arm-none-eabi/lib/thumb/v7-m/nofp/libc_nano.a(lib_a-makebuf.o) (_fstat_r)
/usr/lib/gcc/arm-none-eabi/10.3.1/../../../arm-none-eabi/lib/thumb/v7-m/nofp/libc_nano.a(lib_a-fvwrite.o)
                              /usr/lib/gcc/arm-none-eabi/10.3.1/../../../arm-none-eabi/lib/thumb/v7-m/nofp/libc_nano.a(lib_a-nano-vfprintf.o) (__sfvwrite_r)
/usr/lib/gcc/arm-none-eabi/10.3.1/../../../arm-none-eabi/lib/thumb/v7-m/nofp/libc_nano.a(lib_a-isattyr.o)
                              /usr/lib/gcc/arm-none-eabi/10.3.1/../../../arm-none-eabi/lib/thumb/v7-m/nofp/libc_nano.a(lib_a-makebuf.o) (_isatty_r)
/usr/lib/gcc/arm-none-eabi/10.3.1/../../../arm-none-eabi/lib/thumb/v7-m/nofp/libc_nano.a(lib_a-locale.o)
                              /usr/lib/gcc/arm-none-eabi/10.3.1/../../../arm-none-eabi/lib/thumb/v7-m/nofp/libc_nano.a(lib_a-localeconv.o) (__global_locale)
/usr/lib/gcc/arm-none-eabi/10.3.1/../../../arm-none-eabi/lib/thumb/v7-m/nofp/libc_nano.a(lib_a-lseekr.o)
                              /usr/lib/gcc/arm-none-eabi/10.3.1/../../../arm-none-eabi/lib/thumb/v7-m/nofp/libc_nano.a(lib_a-stdio.o) (_lseek_r)
/usr/lib/gcc/arm-none-eabi/10.3.1/../../../arm-none-eabi/lib/thumb/v7-m/nofp/libc_nano.a(lib_a-mbtowc_r.o)
                              /usr/lib/gcc/arm-none-eabi/10.3.1/../../../arm-none-eabi/lib/thumb/v7-m/nofp/libc_nano.a(lib_a-locale.o) (__ascii_mbtowc)
/usr/lib/gcc/arm-none-eabi/10.3.1/../../../arm-none-eabi/lib/thumb/v7-m/nofp/libc_nano.a(lib_a-memmove.o)
                              /usr/lib/gcc/arm-none-eabi/10.3.1/../../../arm-none-eabi/lib/thumb/v7-m/nofp/libc_nano.a(lib_a-nano-svfprintf.o) (memmove)
/usr/lib/gcc/arm-none-eabi/10.3.1/../../../arm-none-eabi/lib/thumb/v7-m/nofp/libc_nano.a(lib_a-mlock.o)
                              /usr/lib/gcc/arm-none-eabi/10.3.1/../../../arm-none-eabi/lib/thumb/v7-m/nofp/libc_nano.a(lib_a-nano-freer.o) (__malloc_lock)
/usr/lib/gcc/arm-none-eabi/10.3.1/../../../arm-none-eabi/lib/thumb/v7-m/nofp/libc_nano.a(lib_a-nano-reallocr.o)
                              /usr/lib/gcc/arm-none-eabi/10.3.1/../../../arm-none-eabi/lib/thumb/v7-m/nofp/libc_nano.a(lib_a-nano-svfprintf.o) (_realloc_r)
/usr/lib/gcc/arm-none-eabi/10.3.1/../../../arm-none-eabi/lib/thumb/v7-m/nofp/libc_nano.a(lib_a-readr.o)
                              /usr/lib/gcc/arm-none-eabi/10.3.1/../../../arm-none-eabi/lib/thumb/v7-m/nofp/libc_nano.a(lib_a-stdio.o) (_read_r)
/usr/lib/gcc/arm-none-eabi/10.3.1/../../../arm-none-eabi/lib/thumb/v7-m/nofp/libc_nano.a(lib_a-reent.o)
                              /usr/lib/gcc/arm-none-eabi/10.3.1/../../../arm-none-eabi/lib/thumb/v7-m/nofp/libc_nano.a(lib_a-sbrkr.o) (errno)
/usr/lib/gcc/arm-none-eabi/10.3.1/../../../arm-none-eabi/lib/thumb/v7-m/nofp/libc_nano.a(lib_a-strcmp.o)
                              /usr/lib/gcc/arm-none-eabi/10.3.1/../../../arm-none-eabi/lib/thumb/v7-m/nofp/libc_nano.a(lib_a-locale.o) (strcmp)
/usr/lib/gcc/arm-none-eabi/10.3.1/../../../arm-none-eabi/lib/thumb/v7-m/nofp/libc_nano.a(lib_a-wctomb_r.o)
                              /usr/lib/gcc/arm-none-eabi/10.3.1/../../../arm-none-eabi/lib/thumb/v7-m/nofp/libc_nano.a(lib_a-locale.o) (__ascii_wctomb)
/usr/lib/gcc/arm-none-eabi/10.3.1/../../../arm-none-eabi/lib/thumb/v7-m/nofp/libc_nano.a(lib_a-abort.o)
                              /usr/lib/gcc/arm-none-eabi/10.3.1/../../../arm-none-eabi/lib/thumb/v7-m/nofp/libc_nano.a(lib_a-assert.o) (abort)
/usr/lib/gcc/arm-none-eabi/10.3.1/../../../arm-none-eabi/lib/thumb/v7-m/nofp/libc_nano.a(lib_a-ctype_.o)
                              /usr/lib/gcc/arm-none-eabi/10.3.1/../../../arm-none-eabi/lib/thumb/v7-m/nofp/libc_nano.a(lib_a-locale.o) (_ctype_)
/usr/lib/gcc/arm-none-eabi/10.3.1/../../../arm-none-eabi/lib/thumb/v7-m/nofp/libc_nano.a(lib_a-nano-msizer.o)
                              /usr/lib/gcc/arm-none-eabi/10.3.1/../../../arm-none-eabi/lib/thumb/v7-m/nofp/libc_nano.a(lib_a-nano-reallocr.o) (_malloc_usable_size_r)
/usr/lib/gcc/arm-none-eabi/10.3.1/../../../arm-none-eabi/lib/thumb/v7-m/nofp/libc_nano.a(lib_a-signal.o)
                              /usr/lib/gcc/arm-none-eabi/10.3.1/../../../arm-none-eabi/lib/thumb/v7-m/nofp/libc_nano.a(lib_a-abort.o) (raise)
/usr/lib/gcc/arm-none-eabi/10.3.1/../../../arm-none-eabi/lib/thumb/v7-m/nofp/libc_nano.a(lib_a-signalr.o)
                              /usr/lib/gcc/arm-none-eabi/10.3.1/../../../arm-none-eabi/lib/thumb/v7-m/nofp/libc_nano.a(lib_a-signal.o) (_kill_r)
/usr/lib/gcc/arm-none-eabi/10.3.1/thumb/v7-m/nofp/libgcc.a(_arm_cmpdf2.o)
                              /usr/lib/gcc/arm-none-eabi/10.3.1/../../../arm-none-eabi/lib/thumb/v7-m/nofp/libc_nano.a(lib_a-nano-vfprintf_float.o) (__aeabi_dcmpeq)
/usr/lib/gcc/arm-none-eabi/10.3.1/thumb/v7-m/nofp/libgcc.a(_arm_unorddf2.o)
                              /usr/lib/gcc/arm-none-eabi/10.3.1/../../../arm-none-eabi/lib/thumb/v7-m/nofp/libc_nano.a(lib_a-nano-vfprintf_float.o) (__aeabi_dcmpun)
/usr/lib/gcc/arm-none-eabi/10.3.1/thumb/v7-m/nofp/libgcc.a(_arm_fixdfsi.o)
                              /usr/lib/gcc/arm-none-eabi/10.3.1/../../../arm-none-eabi/lib/thumb/v7-m/nofp/libc_nano.a(lib_a-dtoa.o) (__aeabi_d2iz)
/usr/lib/gcc/arm-none-eabi/10.3.1/../../../arm-none-eabi/lib/thumb/v7-m/nofp/libnosys.a(close.o)
                              /usr/lib/gcc/arm-none-eabi/10.3.1/../../../arm-none-eabi/lib/thumb/v7-m/nofp/libc_nano.a(lib_a-closer.o) (_close)
/usr/lib/gcc/arm-none-eabi/10.3.1/../../../arm-none-eabi/lib/thumb/v7-m/nofp/libnosys.a(fstat.o)
                              /usr/lib/gcc/arm-none-eabi/10.3.1/../../../arm-none-eabi/lib/thumb/v7-m/nofp/libc_nano.a(lib_a-fstatr.o) (_fstat)
/usr/lib/gcc/arm-none-eabi/10.3.1/../../../arm-none-eabi/lib/thumb/v7-m/nofp/libnosys.a(getpid.o)
                              /usr/lib/gcc/arm-none-eabi/10.3.1/../../../arm-none-eabi/lib/thumb/v7-m/nofp/libc_nano.a(lib_a-signalr.o) (_getpid)
/usr/lib/gcc/arm-none-eabi/10.3.1/../../../arm-none-eabi/lib/thumb/v7-m/nofp/libnosys.a(isatty.o)
                              /usr/lib/gcc/arm-none-eabi/10.3.1/../../../arm-none-eabi/lib/thumb/v7-m/nofp/libc_nano.a(lib_a-isattyr.o) (_isatty)
/usr/lib/gcc/arm-none-eabi/10.3.1/../../../arm-none-eabi/lib/thumb/v7-m/nofp/libnosys.a(kill.o)
                              /usr/lib/gcc/arm-none-eabi/10.3.1/../../../arm-none-eabi/lib/thumb/v7-m/nofp/libc_nano.a(lib_a-signalr.o) (_kill)
/usr/lib/gcc/arm-none-eabi/10.3.1/../../../arm-none-eabi/lib/thumb/v7-m/nofp/libnosys.a(lseek.o)
                              /usr/lib/gcc/arm-none-eabi/10.3.1/../../../arm-none-eabi/lib/thumb/v7-m/nofp/libc_nano.a(lib_a-lseekr.o) (_lseek)
/usr/lib/gcc/arm-none-eabi/10.3.1/../../../arm-none-eabi/lib/thumb/v7-m/nofp/libnosys.a(read.o)
                              /usr/lib/gcc/arm-none-eabi/10.3.1/../../../arm-none-eabi/lib/thumb/v7-m/nofp/libc_nano.a(lib_a-readr.o) (_read)
/usr/lib/gcc/arm-none-eabi/10.3.1/../../../arm-none-eabi/lib/thumb/v7-m/nofp/libnosys.a(sbrk.o)
                              /usr/lib/gcc/arm-none-eabi/10.3.1/../../../arm-none-eabi/lib/thumb/v7-m/nofp/libc_nano.a(lib_a-sbrkr.o) (_sbrk)
/usr/lib/gcc/arm-none-eabi/10.3.1/../../../arm-none-eabi/lib/thumb/v7-m/nofp/libnosys.a(_exit.o)
                              /usr/lib/gcc/arm-none-eabi/10.3.1/../../../arm-none-eabi/lib/thumb/v7-m/nofp/libc_nano.a(lib_a-exit.o) (_exit)

Discarded input sections

 .text          0x0000000000000000        0x0 /usr/lib/gcc/arm-none-eabi/10.3.1/thumb/v7-m/nofp/crti.o
 .data          0x0000000000000000        0x0 /usr/lib/gcc/arm-none-eabi/10.3.1/thumb/v7-m/nofp/crti.o
 .bss           0x0000000000000000        0x0 /usr/lib/gcc/arm-none-eabi/10.3.1/thumb/v7-m/nofp/crti.o
 .data          0x0000000000000000        0x4 /usr/lib/gcc/arm-none-eabi/10.3.1/thumb/v7-m/nofp/crtbegin.o
 .rodata        0x0000000000000000       0x24 /usr/lib/gcc/arm-none-eabi/10.3.1/thumb/v7-m/nofp/crtbegin.o
 .text          0x0000000000000000       0x70 /usr/lib/gcc/arm-none-eabi/10.3.1/../../../arm-none-eabi/lib/thumb/v7-m/nofp/crt0.o
 .data          0x0000000000000000        0x0 /usr/lib/gcc/arm-none-eabi/10.3.1/../../../arm-none-eabi/lib/thumb/v7-m/nofp/crt0.o
 .bss           0x0000000000000000        0x0 /usr/lib/gcc/arm-none-eabi/10.3.1/../../../arm-none-eabi/lib/thumb/v7-m/nofp/crt0.o
 .ARM.extab     0x0000000000000000        0x0 /usr/lib/gcc/arm-none-eabi/10.3.1/../../../arm-none-eabi/lib/thumb/v7-m/nofp/crt0.o
 .ARM.exidx     0x0000000000000000       0x10 /usr/lib/gcc/arm-none-eabi/10.3.1/../../../arm-none-eabi/lib/thumb/v7-m/nofp/crt0.o
 .debug_line    0x0000000000000000       0x87 /usr/lib/gcc/arm-none-eabi/10.3.1/../../../arm-none-eabi/lib/thumb/v7-m/nofp/crt0.o
 .debug_info    0x0000000000000000       0x26 /usr/lib/gcc/arm-none-eabi/10.3.1/../../../arm-none-eabi/lib/thumb/v7-m/nofp/crt0.o
 .debug_abbrev  0x0000000000000000       0x14 /usr/lib/gcc/arm-none-eabi/10.3.1/../../../arm-none-eabi/lib/thumb/v7-m/nofp/crt0.o
 .debug_aranges
                0x0000000000000000       0x20 /usr/lib/gcc/arm-none-eabi/10.3.1/../../../arm-none-eabi/lib/thumb/v7-m/nofp/crt0.o
 .debug_str     0x0000000000000000       0x94 /usr/lib/gcc/arm-none-eabi/10.3.1/../../../arm-none-eabi/lib/thumb/v7-m/nofp/crt0.o
 .ARM.attributes
                0x0000000000000000       0x1b /usr/lib/gcc/arm-none-eabi/10.3.1/../../../arm-none-eabi/lib/thumb/v7-m/nofp/crt0.o
 .text          0x0000000000000000        0x0 CMakeFiles/Project.elf.dir/Code/Src/GPS.c.obj
 .data          0x0000000000000000        0x0 CMakeFiles/Project.elf.dir/Code/Src/GPS.c.obj
 .bss           0x0000000000000000        0x0 CMakeFiles/Project.elf.dir/Code/Src/GPS.c.obj
 .text          0x0000000000000000        0x0 CMakeFiles/Project.elf.dir/Code/Src/GPS_Usart.c.obj
 .data          0x0000000000000000        0x0 CMakeFiles/Project.elf.dir/Code/Src/GPS_Usart.c.obj
 .bss           0x0000000000000000        0x0 CMakeFiles/Project.elf.dir/Code/Src/GPS_Usart.c.obj
 .text.USART2_SendByte
                0x0000000000000000       0x1c CMakeFiles/Project.elf.dir/Code/Src/GPS_Usart.c.obj
 .text.USART2_SendArray
                0x0000000000000000       0x1a CMakeFiles/Project.elf.dir/Code/Src/GPS_Usart.c.obj
 .text.USART2_SendString
                0x0000000000000000       0x18 CMakeFiles/Project.elf.dir/Code/Src/GPS_Usart.c.obj
 .text.USART2_Pow
                0x0000000000000000       0x14 CMakeFiles/Project.elf.dir/Code/Src/GPS_Usart.c.obj
 .text.USART2_SendNumber
                0x0000000000000000       0x40 CMakeFiles/Project.elf.dir/Code/Src/GPS_Usart.c.obj
 .text          0x0000000000000000        0x0 CMakeFiles/Project.elf.dir/Code/Src/I2COLED.c.obj
 .data          0x0000000000000000        0x0 CMakeFiles/Project.elf.dir/Code/Src/I2COLED.c.obj
 .bss           0x0000000000000000        0x0 CMakeFiles/Project.elf.dir/Code/Src/I2COLED.c.obj
 .text.I2COLED_CLS
                0x0000000000000000        0xa CMakeFiles/Project.elf.dir/Code/Src/I2COLED.c.obj
 .text.I2COLED_ON
                0x0000000000000000       0x16 CMakeFiles/Project.elf.dir/Code/Src/I2COLED.c.obj
 .text.I2COLED_OFF
                0x0000000000000000       0x16 CMakeFiles/Project.elf.dir/Code/Src/I2COLED.c.obj
 .text.I2COLED_ShowStr
                0x0000000000000000       0x7a CMakeFiles/Project.elf.dir/Code/Src/I2COLED.c.obj
 .text.I2COLED_ShowNum
                0x0000000000000000       0xe0 CMakeFiles/Project.elf.dir/Code/Src/I2COLED.c.obj
 .text.I2COLED_ShowSignedNum
                0x0000000000000000      0x134 CMakeFiles/Project.elf.dir/Code/Src/I2COLED.c.obj
 .text.I2COLED_ShowBinNum
                0x0000000000000000       0xbc CMakeFiles/Project.elf.dir/Code/Src/I2COLED.c.obj
 .text.I2COLED_ShowCN
                0x0000000000000000       0x48 CMakeFiles/Project.elf.dir/Code/Src/I2COLED.c.obj
 .text.I2COLED_DrawBMP
                0x0000000000000000       0x46 CMakeFiles/Project.elf.dir/Code/Src/I2COLED.c.obj
 .data.BMP1     0x0000000000000000      0x400 CMakeFiles/Project.elf.dir/Code/Src/I2COLED.c.obj
 .data.BMP2     0x0000000000000000      0x400 CMakeFiles/Project.elf.dir/Code/Src/I2COLED.c.obj
 .data.BMP3     0x0000000000000000      0x2d0 CMakeFiles/Project.elf.dir/Code/Src/I2COLED.c.obj
 .data.F16x16   0x0000000000000000       0xa0 CMakeFiles/Project.elf.dir/Code/Src/I2COLED.c.obj
 .data.F16x16_  0x0000000000000000       0x80 CMakeFiles/Project.elf.dir/Code/Src/I2COLED.c.obj
 .text          0x0000000000000000        0x0 CMakeFiles/Project.elf.dir/Code/Src/LED.c.obj
 .data          0x0000000000000000        0x0 CMakeFiles/Project.elf.dir/Code/Src/LED.c.obj
 .bss           0x0000000000000000        0x0 CMakeFiles/Project.elf.dir/Code/Src/LED.c.obj
 .text.LED_Init
                0x0000000000000000       0x38 CMakeFiles/Project.elf.dir/Code/Src/LED.c.obj
 .text.LED1_ON  0x0000000000000000       0x10 CMakeFiles/Project.elf.dir/Code/Src/LED.c.obj
 .text.LED1_OFF
                0x0000000000000000       0x10 CMakeFiles/Project.elf.dir/Code/Src/LED.c.obj
 .text.LED1_Turn
                0x0000000000000000       0x2c CMakeFiles/Project.elf.dir/Code/Src/LED.c.obj
 .text.LED2_ON  0x0000000000000000       0x10 CMakeFiles/Project.elf.dir/Code/Src/LED.c.obj
 .text.LED2_OFF
                0x0000000000000000       0x10 CMakeFiles/Project.elf.dir/Code/Src/LED.c.obj
 .text.LED2_Turn
                0x0000000000000000       0x2c CMakeFiles/Project.elf.dir/Code/Src/LED.c.obj
 .debug_info    0x0000000000000000      0x41a CMakeFiles/Project.elf.dir/Code/Src/LED.c.obj
 .debug_abbrev  0x0000000000000000      0x133 CMakeFiles/Project.elf.dir/Code/Src/LED.c.obj
 .debug_aranges
                0x0000000000000000       0x50 CMakeFiles/Project.elf.dir/Code/Src/LED.c.obj
 .debug_ranges  0x0000000000000000       0x40 CMakeFiles/Project.elf.dir/Code/Src/LED.c.obj
 .debug_line    0x0000000000000000      0x1ed CMakeFiles/Project.elf.dir/Code/Src/LED.c.obj
 .debug_str     0x0000000000000000      0x393 CMakeFiles/Project.elf.dir/Code/Src/LED.c.obj
 .comment       0x0000000000000000       0x34 CMakeFiles/Project.elf.dir/Code/Src/LED.c.obj
 .debug_frame   0x0000000000000000       0xc0 CMakeFiles/Project.elf.dir/Code/Src/LED.c.obj
 .ARM.attributes
                0x0000000000000000       0x2d CMakeFiles/Project.elf.dir/Code/Src/LED.c.obj
 .text          0x0000000000000000        0x0 CMakeFiles/Project.elf.dir/Code/Src/NBIOT_Usart.c.obj
 .data          0x0000000000000000        0x0 CMakeFiles/Project.elf.dir/Code/Src/NBIOT_Usart.c.obj
 .bss           0x0000000000000000        0x0 CMakeFiles/Project.elf.dir/Code/Src/NBIOT_Usart.c.obj
 .text.USART1_SendArray
                0x0000000000000000       0x1a CMakeFiles/Project.elf.dir/Code/Src/NBIOT_Usart.c.obj
 .text.USART1_Pow
                0x0000000000000000       0x14 CMakeFiles/Project.elf.dir/Code/Src/NBIOT_Usart.c.obj
 .text.USART1_SendNumber
                0x0000000000000000       0x40 CMakeFiles/Project.elf.dir/Code/Src/NBIOT_Usart.c.obj
 .text.USART1_Printf
                0x0000000000000000       0x24 CMakeFiles/Project.elf.dir/Code/Src/NBIOT_Usart.c.obj
 .text.USART1_SET
                0x0000000000000000       0x10 CMakeFiles/Project.elf.dir/Code/Src/NBIOT_Usart.c.obj
 .text          0x0000000000000000        0x0 CMakeFiles/Project.elf.dir/Code/Src/OLED.c.obj
 .data          0x0000000000000000        0x0 CMakeFiles/Project.elf.dir/Code/Src/OLED.c.obj
 .bss           0x0000000000000000        0x0 CMakeFiles/Project.elf.dir/Code/Src/OLED.c.obj
 .text.OLED_Clear
                0x0000000000000000        0x8 CMakeFiles/Project.elf.dir/Code/Src/OLED.c.obj
 .text.OLED_ShowNum
                0x0000000000000000       0x24 CMakeFiles/Project.elf.dir/Code/Src/OLED.c.obj
 .text.OLED_ShowSignedNum
                0x0000000000000000       0x24 CMakeFiles/Project.elf.dir/Code/Src/OLED.c.obj
 .text.OLED_ShowBinNum
                0x0000000000000000       0x24 CMakeFiles/Project.elf.dir/Code/Src/OLED.c.obj
 .text          0x0000000000000000        0x0 CMakeFiles/Project.elf.dir/Code/Src/OneWrite.c.obj
 .data          0x0000000000000000        0x0 CMakeFiles/Project.elf.dir/Code/Src/OneWrite.c.obj
 .bss           0x0000000000000000        0x0 CMakeFiles/Project.elf.dir/Code/Src/OneWrite.c.obj
 .text.Onewrite_Read_2Bit
                0x0000000000000000       0x58 CMakeFiles/Project.elf.dir/Code/Src/OneWrite.c.obj
 .text.Onewrite_Write_Bit
                0x0000000000000000       0x50 CMakeFiles/Project.elf.dir/Code/Src/OneWrite.c.obj
 .text          0x0000000000000000        0x0 CMakeFiles/Project.elf.dir/Code/Src/Usart.c.obj
 .data          0x0000000000000000        0x0 CMakeFiles/Project.elf.dir/Code/Src/Usart.c.obj
 .bss           0x0000000000000000        0x0 CMakeFiles/Project.elf.dir/Code/Src/Usart.c.obj
 .text.Usart3_SendByte
                0x0000000000000000       0x1c CMakeFiles/Project.elf.dir/Code/Src/Usart.c.obj
 .text.Usart3_SendArray
                0x0000000000000000       0x1a CMakeFiles/Project.elf.dir/Code/Src/Usart.c.obj
 .text.Usart3_SendString
                0x0000000000000000       0x18 CMakeFiles/Project.elf.dir/Code/Src/Usart.c.obj
 .text.Usart3_Pow
                0x0000000000000000       0x14 CMakeFiles/Project.elf.dir/Code/Src/Usart.c.obj
 .text.Usart_SendNumber
                0x0000000000000000       0x40 CMakeFiles/Project.elf.dir/Code/Src/Usart.c.obj
 .text.Usart_Printf
                0x0000000000000000       0x24 CMakeFiles/Project.elf.dir/Code/Src/Usart.c.obj
 .bss.Usart_RxFlag
                0x0000000000000000        0x1 CMakeFiles/Project.elf.dir/Code/Src/Usart.c.obj
 .bss.Usart_RxPacket
                0x0000000000000000       0x64 CMakeFiles/Project.elf.dir/Code/Src/Usart.c.obj
 .text          0x0000000000000000        0x0 CMakeFiles/Project.elf.dir/Code/Src/nbiot.c.obj
 .data          0x0000000000000000        0x0 CMakeFiles/Project.elf.dir/Code/Src/nbiot.c.obj
 .bss           0x0000000000000000        0x0 CMakeFiles/Project.elf.dir/Code/Src/nbiot.c.obj
 .text.NB_IotConect
                0x0000000000000000       0x1c CMakeFiles/Project.elf.dir/Code/Src/nbiot.c.obj
 .data.send_number
                0x0000000000000000        0x1 CMakeFiles/Project.elf.dir/Code/Src/nbiot.c.obj
 .text          0x0000000000000000        0x0 CMakeFiles/Project.elf.dir/Lib/Src/misc.c.obj
 .data          0x0000000000000000        0x0 CMakeFiles/Project.elf.dir/Lib/Src/misc.c.obj
 .bss           0x0000000000000000        0x0 CMakeFiles/Project.elf.dir/Lib/Src/misc.c.obj
 .text.NVIC_SetVectorTable
                0x0000000000000000       0x14 CMakeFiles/Project.elf.dir/Lib/Src/misc.c.obj
 .text.NVIC_SystemLPConfig
                0x0000000000000000       0x1c CMakeFiles/Project.elf.dir/Lib/Src/misc.c.obj
 .text.SysTick_CLKSourceConfig
                0x0000000000000000       0x20 CMakeFiles/Project.elf.dir/Lib/Src/misc.c.obj
 .text          0x0000000000000000        0x0 CMakeFiles/Project.elf.dir/Lib/Src/stm32f10x_adc.c.obj
 .data          0x0000000000000000        0x0 CMakeFiles/Project.elf.dir/Lib/Src/stm32f10x_adc.c.obj
 .bss           0x0000000000000000        0x0 CMakeFiles/Project.elf.dir/Lib/Src/stm32f10x_adc.c.obj
 .text.ADC_DeInit
                0x0000000000000000       0x64 CMakeFiles/Project.elf.dir/Lib/Src/stm32f10x_adc.c.obj
 .text.ADC_Init
                0x0000000000000000       0x4c CMakeFiles/Project.elf.dir/Lib/Src/stm32f10x_adc.c.obj
 .text.ADC_StructInit
                0x0000000000000000       0x12 CMakeFiles/Project.elf.dir/Lib/Src/stm32f10x_adc.c.obj
 .text.ADC_Cmd  0x0000000000000000       0x16 CMakeFiles/Project.elf.dir/Lib/Src/stm32f10x_adc.c.obj
 .text.ADC_DMACmd
                0x0000000000000000       0x16 CMakeFiles/Project.elf.dir/Lib/Src/stm32f10x_adc.c.obj
 .text.ADC_ITConfig
                0x0000000000000000       0x16 CMakeFiles/Project.elf.dir/Lib/Src/stm32f10x_adc.c.obj
 .text.ADC_ResetCalibration
                0x0000000000000000        0xa CMakeFiles/Project.elf.dir/Lib/Src/stm32f10x_adc.c.obj
 .text.ADC_GetResetCalibrationStatus
                0x0000000000000000       0x10 CMakeFiles/Project.elf.dir/Lib/Src/stm32f10x_adc.c.obj
 .text.ADC_StartCalibration
                0x0000000000000000        0xa CMakeFiles/Project.elf.dir/Lib/Src/stm32f10x_adc.c.obj
 .text.ADC_GetCalibrationStatus
                0x0000000000000000       0x10 CMakeFiles/Project.elf.dir/Lib/Src/stm32f10x_adc.c.obj
 .text.ADC_SoftwareStartConvCmd
                0x0000000000000000       0x16 CMakeFiles/Project.elf.dir/Lib/Src/stm32f10x_adc.c.obj
 .text.ADC_GetSoftwareStartConvStatus
                0x0000000000000000       0x10 CMakeFiles/Project.elf.dir/Lib/Src/stm32f10x_adc.c.obj
 .text.ADC_DiscModeChannelCountConfig
                0x0000000000000000       0x10 CMakeFiles/Project.elf.dir/Lib/Src/stm32f10x_adc.c.obj
 .text.ADC_DiscModeCmd
                0x0000000000000000       0x16 CMakeFiles/Project.elf.dir/Lib/Src/stm32f10x_adc.c.obj
 .text.ADC_RegularChannelConfig
                0x0000000000000000       0x98 CMakeFiles/Project.elf.dir/Lib/Src/stm32f10x_adc.c.obj
 .text.ADC_ExternalTrigConvCmd
                0x0000000000000000       0x16 CMakeFiles/Project.elf.dir/Lib/Src/stm32f10x_adc.c.obj
 .text.ADC_GetConversionValue
                0x0000000000000000        0x6 CMakeFiles/Project.elf.dir/Lib/Src/stm32f10x_adc.c.obj
 .text.ADC_GetDualModeConversionValue
                0x0000000000000000        0xc CMakeFiles/Project.elf.dir/Lib/Src/stm32f10x_adc.c.obj
 .text.ADC_AutoInjectedConvCmd
                0x0000000000000000       0x16 CMakeFiles/Project.elf.dir/Lib/Src/stm32f10x_adc.c.obj
 .text.ADC_InjectedDiscModeCmd
                0x0000000000000000       0x16 CMakeFiles/Project.elf.dir/Lib/Src/stm32f10x_adc.c.obj
 .text.ADC_ExternalTrigInjectedConvConfig
                0x0000000000000000        0xc CMakeFiles/Project.elf.dir/Lib/Src/stm32f10x_adc.c.obj
 .text.ADC_ExternalTrigInjectedConvCmd
                0x0000000000000000       0x16 CMakeFiles/Project.elf.dir/Lib/Src/stm32f10x_adc.c.obj
 .text.ADC_SoftwareStartInjectedConvCmd
                0x0000000000000000       0x16 CMakeFiles/Project.elf.dir/Lib/Src/stm32f10x_adc.c.obj
 .text.ADC_GetSoftwareStartInjectedConvCmdStatus
                0x0000000000000000       0x10 CMakeFiles/Project.elf.dir/Lib/Src/stm32f10x_adc.c.obj
 .text.ADC_InjectedChannelConfig
                0x0000000000000000       0x62 CMakeFiles/Project.elf.dir/Lib/Src/stm32f10x_adc.c.obj
 .text.ADC_InjectedSequencerLengthConfig
                0x0000000000000000       0x10 CMakeFiles/Project.elf.dir/Lib/Src/stm32f10x_adc.c.obj
 .text.ADC_SetInjectedOffset
                0x0000000000000000       0x16 CMakeFiles/Project.elf.dir/Lib/Src/stm32f10x_adc.c.obj
 .text.ADC_GetInjectedConversionValue
                0x0000000000000000       0x1a CMakeFiles/Project.elf.dir/Lib/Src/stm32f10x_adc.c.obj
 .text.ADC_AnalogWatchdogCmd
                0x0000000000000000       0x10 CMakeFiles/Project.elf.dir/Lib/Src/stm32f10x_adc.c.obj
 .text.ADC_AnalogWatchdogThresholdsConfig
                0x0000000000000000        0x6 CMakeFiles/Project.elf.dir/Lib/Src/stm32f10x_adc.c.obj
 .text.ADC_AnalogWatchdogSingleChannelConfig
                0x0000000000000000        0xc CMakeFiles/Project.elf.dir/Lib/Src/stm32f10x_adc.c.obj
 .text.ADC_TempSensorVrefintCmd
                0x0000000000000000       0x20 CMakeFiles/Project.elf.dir/Lib/Src/stm32f10x_adc.c.obj
 .text.ADC_GetFlagStatus
                0x0000000000000000        0xe CMakeFiles/Project.elf.dir/Lib/Src/stm32f10x_adc.c.obj
 .text.ADC_ClearFlag
                0x0000000000000000        0x6 CMakeFiles/Project.elf.dir/Lib/Src/stm32f10x_adc.c.obj
 .text.ADC_GetITStatus
                0x0000000000000000       0x1c CMakeFiles/Project.elf.dir/Lib/Src/stm32f10x_adc.c.obj
 .text.ADC_ClearITPendingBit
                0x0000000000000000        0x8 CMakeFiles/Project.elf.dir/Lib/Src/stm32f10x_adc.c.obj
 .debug_info    0x0000000000000000      0xd63 CMakeFiles/Project.elf.dir/Lib/Src/stm32f10x_adc.c.obj
 .debug_abbrev  0x0000000000000000      0x1fa CMakeFiles/Project.elf.dir/Lib/Src/stm32f10x_adc.c.obj
 .debug_loc     0x0000000000000000      0xa91 CMakeFiles/Project.elf.dir/Lib/Src/stm32f10x_adc.c.obj
 .debug_aranges
                0x0000000000000000      0x138 CMakeFiles/Project.elf.dir/Lib/Src/stm32f10x_adc.c.obj
 .debug_ranges  0x0000000000000000      0x128 CMakeFiles/Project.elf.dir/Lib/Src/stm32f10x_adc.c.obj
 .debug_line    0x0000000000000000      0x9f9 CMakeFiles/Project.elf.dir/Lib/Src/stm32f10x_adc.c.obj
 .debug_str     0x0000000000000000      0x753 CMakeFiles/Project.elf.dir/Lib/Src/stm32f10x_adc.c.obj
 .comment       0x0000000000000000       0x34 CMakeFiles/Project.elf.dir/Lib/Src/stm32f10x_adc.c.obj
 .debug_frame   0x0000000000000000      0x28c CMakeFiles/Project.elf.dir/Lib/Src/stm32f10x_adc.c.obj
 .ARM.attributes
                0x0000000000000000       0x2d CMakeFiles/Project.elf.dir/Lib/Src/stm32f10x_adc.c.obj
 .text          0x0000000000000000        0x0 CMakeFiles/Project.elf.dir/Lib/Src/stm32f10x_bkp.c.obj
 .data          0x0000000000000000        0x0 CMakeFiles/Project.elf.dir/Lib/Src/stm32f10x_bkp.c.obj
 .bss           0x0000000000000000        0x0 CMakeFiles/Project.elf.dir/Lib/Src/stm32f10x_bkp.c.obj
 .text.BKP_DeInit
                0x0000000000000000       0x10 CMakeFiles/Project.elf.dir/Lib/Src/stm32f10x_bkp.c.obj
 .text.BKP_TamperPinLevelConfig
                0x0000000000000000        0xc CMakeFiles/Project.elf.dir/Lib/Src/stm32f10x_bkp.c.obj
 .text.BKP_TamperPinCmd
                0x0000000000000000        0xc CMakeFiles/Project.elf.dir/Lib/Src/stm32f10x_bkp.c.obj
 .text.BKP_ITConfig
                0x0000000000000000        0xc CMakeFiles/Project.elf.dir/Lib/Src/stm32f10x_bkp.c.obj
 .text.BKP_RTCOutputConfig
                0x0000000000000000       0x14 CMakeFiles/Project.elf.dir/Lib/Src/stm32f10x_bkp.c.obj
 .text.BKP_SetRTCCalibrationValue
                0x0000000000000000       0x14 CMakeFiles/Project.elf.dir/Lib/Src/stm32f10x_bkp.c.obj
 .text.BKP_WriteBackupRegister
                0x0000000000000000       0x1c CMakeFiles/Project.elf.dir/Lib/Src/stm32f10x_bkp.c.obj
 .text.BKP_ReadBackupRegister
                0x0000000000000000       0x20 CMakeFiles/Project.elf.dir/Lib/Src/stm32f10x_bkp.c.obj
 .text.BKP_GetFlagStatus
                0x0000000000000000       0x10 CMakeFiles/Project.elf.dir/Lib/Src/stm32f10x_bkp.c.obj
 .text.BKP_ClearFlag
                0x0000000000000000       0x14 CMakeFiles/Project.elf.dir/Lib/Src/stm32f10x_bkp.c.obj
 .text.BKP_GetITStatus
                0x0000000000000000       0x10 CMakeFiles/Project.elf.dir/Lib/Src/stm32f10x_bkp.c.obj
 .text.BKP_ClearITPendingBit
                0x0000000000000000       0x14 CMakeFiles/Project.elf.dir/Lib/Src/stm32f10x_bkp.c.obj
 .debug_info    0x0000000000000000      0x846 CMakeFiles/Project.elf.dir/Lib/Src/stm32f10x_bkp.c.obj
 .debug_abbrev  0x0000000000000000      0x1a8 CMakeFiles/Project.elf.dir/Lib/Src/stm32f10x_bkp.c.obj
 .debug_loc     0x0000000000000000       0x90 CMakeFiles/Project.elf.dir/Lib/Src/stm32f10x_bkp.c.obj
 .debug_aranges
                0x0000000000000000       0x78 CMakeFiles/Project.elf.dir/Lib/Src/stm32f10x_bkp.c.obj
 .debug_ranges  0x0000000000000000       0x68 CMakeFiles/Project.elf.dir/Lib/Src/stm32f10x_bkp.c.obj
 .debug_line    0x0000000000000000      0x2bb CMakeFiles/Project.elf.dir/Lib/Src/stm32f10x_bkp.c.obj
 .debug_str     0x0000000000000000      0x609 CMakeFiles/Project.elf.dir/Lib/Src/stm32f10x_bkp.c.obj
 .comment       0x0000000000000000       0x34 CMakeFiles/Project.elf.dir/Lib/Src/stm32f10x_bkp.c.obj
 .debug_frame   0x0000000000000000       0xe8 CMakeFiles/Project.elf.dir/Lib/Src/stm32f10x_bkp.c.obj
 .ARM.attributes
                0x0000000000000000       0x2d CMakeFiles/Project.elf.dir/Lib/Src/stm32f10x_bkp.c.obj
 .text          0x0000000000000000        0x0 CMakeFiles/Project.elf.dir/Lib/Src/stm32f10x_can.c.obj
 .data          0x0000000000000000        0x0 CMakeFiles/Project.elf.dir/Lib/Src/stm32f10x_can.c.obj
 .bss           0x0000000000000000        0x0 CMakeFiles/Project.elf.dir/Lib/Src/stm32f10x_can.c.obj
 .text.CheckITStatus
                0x0000000000000000        0xc CMakeFiles/Project.elf.dir/Lib/Src/stm32f10x_can.c.obj
 .text.CAN_DeInit
                0x0000000000000000       0x38 CMakeFiles/Project.elf.dir/Lib/Src/stm32f10x_can.c.obj
 .text.CAN_Init
                0x0000000000000000      0x10e CMakeFiles/Project.elf.dir/Lib/Src/stm32f10x_can.c.obj
 .text.CAN_FilterInit
                0x0000000000000000      0x10c CMakeFiles/Project.elf.dir/Lib/Src/stm32f10x_can.c.obj
 .text.CAN_StructInit
                0x0000000000000000       0x20 CMakeFiles/Project.elf.dir/Lib/Src/stm32f10x_can.c.obj
 .text.CAN_SlaveStartBank
                0x0000000000000000       0x3c CMakeFiles/Project.elf.dir/Lib/Src/stm32f10x_can.c.obj
 .text.CAN_DBGFreeze
                0x0000000000000000       0x16 CMakeFiles/Project.elf.dir/Lib/Src/stm32f10x_can.c.obj
 .text.CAN_TTComModeCmd
                0x0000000000000000       0x5e CMakeFiles/Project.elf.dir/Lib/Src/stm32f10x_can.c.obj
 .text.CAN_Transmit
                0x0000000000000000       0xda CMakeFiles/Project.elf.dir/Lib/Src/stm32f10x_can.c.obj
 .text.CAN_TransmitStatus
                0x0000000000000000       0x98 CMakeFiles/Project.elf.dir/Lib/Src/stm32f10x_can.c.obj
 .text.CAN_CancelTransmit
                0x0000000000000000       0x2a CMakeFiles/Project.elf.dir/Lib/Src/stm32f10x_can.c.obj
 .text.CAN_Receive
                0x0000000000000000       0xaa CMakeFiles/Project.elf.dir/Lib/Src/stm32f10x_can.c.obj
 .text.CAN_FIFORelease
                0x0000000000000000       0x16 CMakeFiles/Project.elf.dir/Lib/Src/stm32f10x_can.c.obj
 .text.CAN_MessagePending
                0x0000000000000000       0x1a CMakeFiles/Project.elf.dir/Lib/Src/stm32f10x_can.c.obj
 .text.CAN_OperatingModeRequest
                0x0000000000000000       0xa2 CMakeFiles/Project.elf.dir/Lib/Src/stm32f10x_can.c.obj
 .text.CAN_Sleep
                0x0000000000000000       0x1e CMakeFiles/Project.elf.dir/Lib/Src/stm32f10x_can.c.obj
 .text.CAN_WakeUp
                0x0000000000000000       0x2a CMakeFiles/Project.elf.dir/Lib/Src/stm32f10x_can.c.obj
 .text.CAN_GetLastErrorCode
                0x0000000000000000        0x8 CMakeFiles/Project.elf.dir/Lib/Src/stm32f10x_can.c.obj
 .text.CAN_GetReceiveErrorCounter
                0x0000000000000000        0x6 CMakeFiles/Project.elf.dir/Lib/Src/stm32f10x_can.c.obj
 .text.CAN_GetLSBTransmitErrorCounter
                0x0000000000000000        0x8 CMakeFiles/Project.elf.dir/Lib/Src/stm32f10x_can.c.obj
 .text.CAN_ITConfig
                0x0000000000000000       0x14 CMakeFiles/Project.elf.dir/Lib/Src/stm32f10x_can.c.obj
 .text.CAN_GetFlagStatus
                0x0000000000000000       0x72 CMakeFiles/Project.elf.dir/Lib/Src/stm32f10x_can.c.obj
 .text.CAN_ClearFlag
                0x0000000000000000       0x38 CMakeFiles/Project.elf.dir/Lib/Src/stm32f10x_can.c.obj
 .text.CAN_GetITStatus
                0x0000000000000000      0x114 CMakeFiles/Project.elf.dir/Lib/Src/stm32f10x_can.c.obj
 .text.CAN_ClearITPendingBit
                0x0000000000000000       0xc0 CMakeFiles/Project.elf.dir/Lib/Src/stm32f10x_can.c.obj
 .debug_info    0x0000000000000000      0xe52 CMakeFiles/Project.elf.dir/Lib/Src/stm32f10x_can.c.obj
 .debug_abbrev  0x0000000000000000      0x25b CMakeFiles/Project.elf.dir/Lib/Src/stm32f10x_can.c.obj
 .debug_loc     0x0000000000000000     0x1038 CMakeFiles/Project.elf.dir/Lib/Src/stm32f10x_can.c.obj
 .debug_aranges
                0x0000000000000000       0xe0 CMakeFiles/Project.elf.dir/Lib/Src/stm32f10x_can.c.obj
 .debug_ranges  0x0000000000000000       0xd0 CMakeFiles/Project.elf.dir/Lib/Src/stm32f10x_can.c.obj
 .debug_line    0x0000000000000000      0xde2 CMakeFiles/Project.elf.dir/Lib/Src/stm32f10x_can.c.obj
 .debug_str     0x0000000000000000      0x786 CMakeFiles/Project.elf.dir/Lib/Src/stm32f10x_can.c.obj
 .comment       0x0000000000000000       0x34 CMakeFiles/Project.elf.dir/Lib/Src/stm32f10x_can.c.obj
 .debug_frame   0x0000000000000000      0x1e8 CMakeFiles/Project.elf.dir/Lib/Src/stm32f10x_can.c.obj
 .ARM.attributes
                0x0000000000000000       0x2d CMakeFiles/Project.elf.dir/Lib/Src/stm32f10x_can.c.obj
 .text          0x0000000000000000        0x0 CMakeFiles/Project.elf.dir/Lib/Src/stm32f10x_cec.c.obj
 .data          0x0000000000000000        0x0 CMakeFiles/Project.elf.dir/Lib/Src/stm32f10x_cec.c.obj
 .bss           0x0000000000000000        0x0 CMakeFiles/Project.elf.dir/Lib/Src/stm32f10x_cec.c.obj
 .text.CEC_DeInit
                0x0000000000000000       0x18 CMakeFiles/Project.elf.dir/Lib/Src/stm32f10x_cec.c.obj
 .text.CEC_Init
                0x0000000000000000       0x18 CMakeFiles/Project.elf.dir/Lib/Src/stm32f10x_cec.c.obj
 .text.CEC_Cmd  0x0000000000000000       0x1c CMakeFiles/Project.elf.dir/Lib/Src/stm32f10x_cec.c.obj
 .text.CEC_ITConfig
                0x0000000000000000        0xc CMakeFiles/Project.elf.dir/Lib/Src/stm32f10x_cec.c.obj
 .text.CEC_OwnAddressConfig
                0x0000000000000000        0xc CMakeFiles/Project.elf.dir/Lib/Src/stm32f10x_cec.c.obj
 .text.CEC_SetPrescaler
                0x0000000000000000        0xc CMakeFiles/Project.elf.dir/Lib/Src/stm32f10x_cec.c.obj
 .text.CEC_SendDataByte
                0x0000000000000000        0xc CMakeFiles/Project.elf.dir/Lib/Src/stm32f10x_cec.c.obj
 .text.CEC_ReceiveDataByte
                0x0000000000000000        0xc CMakeFiles/Project.elf.dir/Lib/Src/stm32f10x_cec.c.obj
 .text.CEC_StartOfMessage
                0x0000000000000000       0x10 CMakeFiles/Project.elf.dir/Lib/Src/stm32f10x_cec.c.obj
 .text.CEC_EndOfMessageCmd
                0x0000000000000000        0xc CMakeFiles/Project.elf.dir/Lib/Src/stm32f10x_cec.c.obj
 .text.CEC_GetFlagStatus
                0x0000000000000000       0x28 CMakeFiles/Project.elf.dir/Lib/Src/stm32f10x_cec.c.obj
 .text.CEC_ClearFlag
                0x0000000000000000       0x1c CMakeFiles/Project.elf.dir/Lib/Src/stm32f10x_cec.c.obj
 .text.CEC_GetITStatus
                0x0000000000000000       0x20 CMakeFiles/Project.elf.dir/Lib/Src/stm32f10x_cec.c.obj
 .text.CEC_ClearITPendingBit
                0x0000000000000000       0x1c CMakeFiles/Project.elf.dir/Lib/Src/stm32f10x_cec.c.obj
 .debug_info    0x0000000000000000      0x4b9 CMakeFiles/Project.elf.dir/Lib/Src/stm32f10x_cec.c.obj
 .debug_abbrev  0x0000000000000000      0x217 CMakeFiles/Project.elf.dir/Lib/Src/stm32f10x_cec.c.obj
 .debug_loc     0x0000000000000000      0x294 CMakeFiles/Project.elf.dir/Lib/Src/stm32f10x_cec.c.obj
 .debug_aranges
                0x0000000000000000       0x88 CMakeFiles/Project.elf.dir/Lib/Src/stm32f10x_cec.c.obj
 .debug_ranges  0x0000000000000000       0x78 CMakeFiles/Project.elf.dir/Lib/Src/stm32f10x_cec.c.obj
 .debug_line    0x0000000000000000      0x36f CMakeFiles/Project.elf.dir/Lib/Src/stm32f10x_cec.c.obj
 .debug_str     0x0000000000000000      0x3ce CMakeFiles/Project.elf.dir/Lib/Src/stm32f10x_cec.c.obj
 .comment       0x0000000000000000       0x34 CMakeFiles/Project.elf.dir/Lib/Src/stm32f10x_cec.c.obj
 .debug_frame   0x0000000000000000       0xf8 CMakeFiles/Project.elf.dir/Lib/Src/stm32f10x_cec.c.obj
 .ARM.attributes
                0x0000000000000000       0x2d CMakeFiles/Project.elf.dir/Lib/Src/stm32f10x_cec.c.obj
 .text          0x0000000000000000        0x0 CMakeFiles/Project.elf.dir/Lib/Src/stm32f10x_crc.c.obj
 .data          0x0000000000000000        0x0 CMakeFiles/Project.elf.dir/Lib/Src/stm32f10x_crc.c.obj
 .bss           0x0000000000000000        0x0 CMakeFiles/Project.elf.dir/Lib/Src/stm32f10x_crc.c.obj
 .text.CRC_ResetDR
                0x0000000000000000        0xc CMakeFiles/Project.elf.dir/Lib/Src/stm32f10x_crc.c.obj
 .text.CRC_CalcCRC
                0x0000000000000000        0xc CMakeFiles/Project.elf.dir/Lib/Src/stm32f10x_crc.c.obj
 .text.CRC_CalcBlockCRC
                0x0000000000000000       0x20 CMakeFiles/Project.elf.dir/Lib/Src/stm32f10x_crc.c.obj
 .text.CRC_GetCRC
                0x0000000000000000        0xc CMakeFiles/Project.elf.dir/Lib/Src/stm32f10x_crc.c.obj
 .text.CRC_SetIDRegister
                0x0000000000000000        0xc CMakeFiles/Project.elf.dir/Lib/Src/stm32f10x_crc.c.obj
 .text.CRC_GetIDRegister
                0x0000000000000000        0xc CMakeFiles/Project.elf.dir/Lib/Src/stm32f10x_crc.c.obj
 .debug_info    0x0000000000000000      0x20a CMakeFiles/Project.elf.dir/Lib/Src/stm32f10x_crc.c.obj
 .debug_abbrev  0x0000000000000000      0x132 CMakeFiles/Project.elf.dir/Lib/Src/stm32f10x_crc.c.obj
 .debug_loc     0x0000000000000000       0x6b CMakeFiles/Project.elf.dir/Lib/Src/stm32f10x_crc.c.obj
 .debug_aranges
                0x0000000000000000       0x48 CMakeFiles/Project.elf.dir/Lib/Src/stm32f10x_crc.c.obj
 .debug_ranges  0x0000000000000000       0x38 CMakeFiles/Project.elf.dir/Lib/Src/stm32f10x_crc.c.obj
 .debug_line    0x0000000000000000      0x1a7 CMakeFiles/Project.elf.dir/Lib/Src/stm32f10x_crc.c.obj
 .debug_str     0x0000000000000000      0x27c CMakeFiles/Project.elf.dir/Lib/Src/stm32f10x_crc.c.obj
 .comment       0x0000000000000000       0x34 CMakeFiles/Project.elf.dir/Lib/Src/stm32f10x_crc.c.obj
 .debug_frame   0x0000000000000000       0x70 CMakeFiles/Project.elf.dir/Lib/Src/stm32f10x_crc.c.obj
 .ARM.attributes
                0x0000000000000000       0x2d CMakeFiles/Project.elf.dir/Lib/Src/stm32f10x_crc.c.obj
 .text          0x0000000000000000        0x0 CMakeFiles/Project.elf.dir/Lib/Src/stm32f10x_dac.c.obj
 .data          0x0000000000000000        0x0 CMakeFiles/Project.elf.dir/Lib/Src/stm32f10x_dac.c.obj
 .bss           0x0000000000000000        0x0 CMakeFiles/Project.elf.dir/Lib/Src/stm32f10x_dac.c.obj
 .text.DAC_DeInit
                0x0000000000000000       0x18 CMakeFiles/Project.elf.dir/Lib/Src/stm32f10x_dac.c.obj
 .text.DAC_Init
                0x0000000000000000       0x30 CMakeFiles/Project.elf.dir/Lib/Src/stm32f10x_dac.c.obj
 .text.DAC_StructInit
                0x0000000000000000        0xc CMakeFiles/Project.elf.dir/Lib/Src/stm32f10x_dac.c.obj
 .text.DAC_Cmd  0x0000000000000000       0x28 CMakeFiles/Project.elf.dir/Lib/Src/stm32f10x_dac.c.obj
 .text.DAC_DMACmd
                0x0000000000000000       0x2c CMakeFiles/Project.elf.dir/Lib/Src/stm32f10x_dac.c.obj
 .text.DAC_SoftwareTriggerCmd
                0x0000000000000000       0x2c CMakeFiles/Project.elf.dir/Lib/Src/stm32f10x_dac.c.obj
 .text.DAC_DualSoftwareTriggerCmd
                0x0000000000000000       0x20 CMakeFiles/Project.elf.dir/Lib/Src/stm32f10x_dac.c.obj
 .text.DAC_WaveGenerationCmd
                0x0000000000000000       0x20 CMakeFiles/Project.elf.dir/Lib/Src/stm32f10x_dac.c.obj
 .text.DAC_SetChannel1Data
                0x0000000000000000       0x20 CMakeFiles/Project.elf.dir/Lib/Src/stm32f10x_dac.c.obj
 .text.DAC_SetChannel2Data
                0x0000000000000000       0x20 CMakeFiles/Project.elf.dir/Lib/Src/stm32f10x_dac.c.obj
 .text.DAC_SetDualChannelData
                0x0000000000000000       0x18 CMakeFiles/Project.elf.dir/Lib/Src/stm32f10x_dac.c.obj
 .text.DAC_GetDataOutputValue
                0x0000000000000000       0x24 CMakeFiles/Project.elf.dir/Lib/Src/stm32f10x_dac.c.obj
 .debug_info    0x0000000000000000      0x560 CMakeFiles/Project.elf.dir/Lib/Src/stm32f10x_dac.c.obj
 .debug_abbrev  0x0000000000000000      0x1e9 CMakeFiles/Project.elf.dir/Lib/Src/stm32f10x_dac.c.obj
 .debug_loc     0x0000000000000000      0x39a CMakeFiles/Project.elf.dir/Lib/Src/stm32f10x_dac.c.obj
 .debug_aranges
                0x0000000000000000       0x78 CMakeFiles/Project.elf.dir/Lib/Src/stm32f10x_dac.c.obj
 .debug_ranges  0x0000000000000000       0x68 CMakeFiles/Project.elf.dir/Lib/Src/stm32f10x_dac.c.obj
 .debug_line    0x0000000000000000      0x3c6 CMakeFiles/Project.elf.dir/Lib/Src/stm32f10x_dac.c.obj
 .debug_str     0x0000000000000000      0x407 CMakeFiles/Project.elf.dir/Lib/Src/stm32f10x_dac.c.obj
 .comment       0x0000000000000000       0x34 CMakeFiles/Project.elf.dir/Lib/Src/stm32f10x_dac.c.obj
 .debug_frame   0x0000000000000000       0xfc CMakeFiles/Project.elf.dir/Lib/Src/stm32f10x_dac.c.obj
 .ARM.attributes
                0x0000000000000000       0x2d CMakeFiles/Project.elf.dir/Lib/Src/stm32f10x_dac.c.obj
 .text          0x0000000000000000        0x0 CMakeFiles/Project.elf.dir/Lib/Src/stm32f10x_dbgmcu.c.obj
 .data          0x0000000000000000        0x0 CMakeFiles/Project.elf.dir/Lib/Src/stm32f10x_dbgmcu.c.obj
 .bss           0x0000000000000000        0x0 CMakeFiles/Project.elf.dir/Lib/Src/stm32f10x_dbgmcu.c.obj
 .text.DBGMCU_GetREVID
                0x0000000000000000        0xc CMakeFiles/Project.elf.dir/Lib/Src/stm32f10x_dbgmcu.c.obj
 .text.DBGMCU_GetDEVID
                0x0000000000000000       0x10 CMakeFiles/Project.elf.dir/Lib/Src/stm32f10x_dbgmcu.c.obj
 .text.DBGMCU_Config
                0x0000000000000000       0x1c CMakeFiles/Project.elf.dir/Lib/Src/stm32f10x_dbgmcu.c.obj
 .debug_info    0x0000000000000000      0x151 CMakeFiles/Project.elf.dir/Lib/Src/stm32f10x_dbgmcu.c.obj
 .debug_abbrev  0x0000000000000000       0xf9 CMakeFiles/Project.elf.dir/Lib/Src/stm32f10x_dbgmcu.c.obj
 .debug_loc     0x0000000000000000       0x42 CMakeFiles/Project.elf.dir/Lib/Src/stm32f10x_dbgmcu.c.obj
 .debug_aranges
                0x0000000000000000       0x30 CMakeFiles/Project.elf.dir/Lib/Src/stm32f10x_dbgmcu.c.obj
 .debug_ranges  0x0000000000000000       0x20 CMakeFiles/Project.elf.dir/Lib/Src/stm32f10x_dbgmcu.c.obj
 .debug_line    0x0000000000000000      0x127 CMakeFiles/Project.elf.dir/Lib/Src/stm32f10x_dbgmcu.c.obj
 .debug_str     0x0000000000000000      0x233 CMakeFiles/Project.elf.dir/Lib/Src/stm32f10x_dbgmcu.c.obj
 .comment       0x0000000000000000       0x34 CMakeFiles/Project.elf.dir/Lib/Src/stm32f10x_dbgmcu.c.obj
 .debug_frame   0x0000000000000000       0x40 CMakeFiles/Project.elf.dir/Lib/Src/stm32f10x_dbgmcu.c.obj
 .ARM.attributes
                0x0000000000000000       0x2d CMakeFiles/Project.elf.dir/Lib/Src/stm32f10x_dbgmcu.c.obj
 .text          0x0000000000000000        0x0 CMakeFiles/Project.elf.dir/Lib/Src/stm32f10x_dma.c.obj
 .data          0x0000000000000000        0x0 CMakeFiles/Project.elf.dir/Lib/Src/stm32f10x_dma.c.obj
 .bss           0x0000000000000000        0x0 CMakeFiles/Project.elf.dir/Lib/Src/stm32f10x_dma.c.obj
 .text.DMA_DeInit
                0x0000000000000000      0x128 CMakeFiles/Project.elf.dir/Lib/Src/stm32f10x_dma.c.obj
 .text.DMA_Init
                0x0000000000000000       0x3e CMakeFiles/Project.elf.dir/Lib/Src/stm32f10x_dma.c.obj
 .text.DMA_StructInit
                0x0000000000000000       0x1a CMakeFiles/Project.elf.dir/Lib/Src/stm32f10x_dma.c.obj
 .text.DMA_Cmd  0x0000000000000000       0x1a CMakeFiles/Project.elf.dir/Lib/Src/stm32f10x_dma.c.obj
 .text.DMA_ITConfig
                0x0000000000000000       0x14 CMakeFiles/Project.elf.dir/Lib/Src/stm32f10x_dma.c.obj
 .text.DMA_SetCurrDataCounter
                0x0000000000000000        0x4 CMakeFiles/Project.elf.dir/Lib/Src/stm32f10x_dma.c.obj
 .text.DMA_GetCurrDataCounter
                0x0000000000000000        0x6 CMakeFiles/Project.elf.dir/Lib/Src/stm32f10x_dma.c.obj
 .text.DMA_GetFlagStatus
                0x0000000000000000       0x24 CMakeFiles/Project.elf.dir/Lib/Src/stm32f10x_dma.c.obj
 .text.DMA_ClearFlag
                0x0000000000000000       0x1c CMakeFiles/Project.elf.dir/Lib/Src/stm32f10x_dma.c.obj
 .text.DMA_GetITStatus
                0x0000000000000000       0x24 CMakeFiles/Project.elf.dir/Lib/Src/stm32f10x_dma.c.obj
 .text.DMA_ClearITPendingBit
                0x0000000000000000       0x1c CMakeFiles/Project.elf.dir/Lib/Src/stm32f10x_dma.c.obj
 .debug_info    0x0000000000000000      0x4b7 CMakeFiles/Project.elf.dir/Lib/Src/stm32f10x_dma.c.obj
 .debug_abbrev  0x0000000000000000      0x19c CMakeFiles/Project.elf.dir/Lib/Src/stm32f10x_dma.c.obj
 .debug_loc     0x0000000000000000      0x1f8 CMakeFiles/Project.elf.dir/Lib/Src/stm32f10x_dma.c.obj
 .debug_aranges
                0x0000000000000000       0x70 CMakeFiles/Project.elf.dir/Lib/Src/stm32f10x_dma.c.obj
 .debug_ranges  0x0000000000000000       0x60 CMakeFiles/Project.elf.dir/Lib/Src/stm32f10x_dma.c.obj
 .debug_line    0x0000000000000000      0x469 CMakeFiles/Project.elf.dir/Lib/Src/stm32f10x_dma.c.obj
 .debug_str     0x0000000000000000      0x3f8 CMakeFiles/Project.elf.dir/Lib/Src/stm32f10x_dma.c.obj
 .comment       0x0000000000000000       0x34 CMakeFiles/Project.elf.dir/Lib/Src/stm32f10x_dma.c.obj
 .debug_frame   0x0000000000000000       0xcc CMakeFiles/Project.elf.dir/Lib/Src/stm32f10x_dma.c.obj
 .ARM.attributes
                0x0000000000000000       0x2d CMakeFiles/Project.elf.dir/Lib/Src/stm32f10x_dma.c.obj
 .text          0x0000000000000000        0x0 CMakeFiles/Project.elf.dir/Lib/Src/stm32f10x_exti.c.obj
 .data          0x0000000000000000        0x0 CMakeFiles/Project.elf.dir/Lib/Src/stm32f10x_exti.c.obj
 .bss           0x0000000000000000        0x0 CMakeFiles/Project.elf.dir/Lib/Src/stm32f10x_exti.c.obj
 .text.EXTI_DeInit
                0x0000000000000000       0x1c CMakeFiles/Project.elf.dir/Lib/Src/stm32f10x_exti.c.obj
 .text.EXTI_Init
                0x0000000000000000       0x8c CMakeFiles/Project.elf.dir/Lib/Src/stm32f10x_exti.c.obj
 .text.EXTI_StructInit
                0x0000000000000000        0xe CMakeFiles/Project.elf.dir/Lib/Src/stm32f10x_exti.c.obj
 .text.EXTI_GenerateSWInterrupt
                0x0000000000000000       0x10 CMakeFiles/Project.elf.dir/Lib/Src/stm32f10x_exti.c.obj
 .text.EXTI_GetFlagStatus
                0x0000000000000000       0x14 CMakeFiles/Project.elf.dir/Lib/Src/stm32f10x_exti.c.obj
 .text.EXTI_ClearFlag
                0x0000000000000000        0xc CMakeFiles/Project.elf.dir/Lib/Src/stm32f10x_exti.c.obj
 .text.EXTI_GetITStatus
                0x0000000000000000       0x20 CMakeFiles/Project.elf.dir/Lib/Src/stm32f10x_exti.c.obj
 .text.EXTI_ClearITPendingBit
                0x0000000000000000        0xc CMakeFiles/Project.elf.dir/Lib/Src/stm32f10x_exti.c.obj
 .debug_info    0x0000000000000000      0x377 CMakeFiles/Project.elf.dir/Lib/Src/stm32f10x_exti.c.obj
 .debug_abbrev  0x0000000000000000      0x182 CMakeFiles/Project.elf.dir/Lib/Src/stm32f10x_exti.c.obj
 .debug_loc     0x0000000000000000      0x17d CMakeFiles/Project.elf.dir/Lib/Src/stm32f10x_exti.c.obj
 .debug_aranges
                0x0000000000000000       0x58 CMakeFiles/Project.elf.dir/Lib/Src/stm32f10x_exti.c.obj
 .debug_ranges  0x0000000000000000       0x48 CMakeFiles/Project.elf.dir/Lib/Src/stm32f10x_exti.c.obj
 .debug_line    0x0000000000000000      0x2fe CMakeFiles/Project.elf.dir/Lib/Src/stm32f10x_exti.c.obj
 .debug_str     0x0000000000000000      0x38a CMakeFiles/Project.elf.dir/Lib/Src/stm32f10x_exti.c.obj
 .comment       0x0000000000000000       0x34 CMakeFiles/Project.elf.dir/Lib/Src/stm32f10x_exti.c.obj
 .debug_frame   0x0000000000000000       0xa0 CMakeFiles/Project.elf.dir/Lib/Src/stm32f10x_exti.c.obj
 .ARM.attributes
                0x0000000000000000       0x2d CMakeFiles/Project.elf.dir/Lib/Src/stm32f10x_exti.c.obj
 .text          0x0000000000000000        0x0 CMakeFiles/Project.elf.dir/Lib/Src/stm32f10x_flash.c.obj
 .data          0x0000000000000000        0x0 CMakeFiles/Project.elf.dir/Lib/Src/stm32f10x_flash.c.obj
 .bss           0x0000000000000000        0x0 CMakeFiles/Project.elf.dir/Lib/Src/stm32f10x_flash.c.obj
 .text.FLASH_SetLatency
                0x0000000000000000       0x14 CMakeFiles/Project.elf.dir/Lib/Src/stm32f10x_flash.c.obj
 .text.FLASH_HalfCycleAccessCmd
                0x0000000000000000       0x18 CMakeFiles/Project.elf.dir/Lib/Src/stm32f10x_flash.c.obj
 .text.FLASH_PrefetchBufferCmd
                0x0000000000000000       0x18 CMakeFiles/Project.elf.dir/Lib/Src/stm32f10x_flash.c.obj
 .text.FLASH_Unlock
                0x0000000000000000       0x18 CMakeFiles/Project.elf.dir/Lib/Src/stm32f10x_flash.c.obj
 .text.FLASH_UnlockBank1
                0x0000000000000000       0x18 CMakeFiles/Project.elf.dir/Lib/Src/stm32f10x_flash.c.obj
 .text.FLASH_Lock
                0x0000000000000000       0x10 CMakeFiles/Project.elf.dir/Lib/Src/stm32f10x_flash.c.obj
 .text.FLASH_LockBank1
                0x0000000000000000       0x10 CMakeFiles/Project.elf.dir/Lib/Src/stm32f10x_flash.c.obj
 .text.FLASH_GetUserOptionByte
                0x0000000000000000        0xc CMakeFiles/Project.elf.dir/Lib/Src/stm32f10x_flash.c.obj
 .text.FLASH_GetWriteProtectionOptionByte
                0x0000000000000000        0xc CMakeFiles/Project.elf.dir/Lib/Src/stm32f10x_flash.c.obj
 .text.FLASH_GetReadOutProtectionStatus
                0x0000000000000000       0x18 CMakeFiles/Project.elf.dir/Lib/Src/stm32f10x_flash.c.obj
 .text.FLASH_GetPrefetchBufferStatus
                0x0000000000000000       0x18 CMakeFiles/Project.elf.dir/Lib/Src/stm32f10x_flash.c.obj
 .text.FLASH_ITConfig
                0x0000000000000000       0x1c CMakeFiles/Project.elf.dir/Lib/Src/stm32f10x_flash.c.obj
 .text.FLASH_GetFlagStatus
                0x0000000000000000       0x28 CMakeFiles/Project.elf.dir/Lib/Src/stm32f10x_flash.c.obj
 .text.FLASH_ClearFlag
                0x0000000000000000        0xc CMakeFiles/Project.elf.dir/Lib/Src/stm32f10x_flash.c.obj
 .text.FLASH_GetStatus
                0x0000000000000000       0x34 CMakeFiles/Project.elf.dir/Lib/Src/stm32f10x_flash.c.obj
 .text.FLASH_GetBank1Status
                0x0000000000000000       0x34 CMakeFiles/Project.elf.dir/Lib/Src/stm32f10x_flash.c.obj
 .text.FLASH_WaitForLastOperation
                0x0000000000000000       0x20 CMakeFiles/Project.elf.dir/Lib/Src/stm32f10x_flash.c.obj
 .text.FLASH_ErasePage
                0x0000000000000000       0x40 CMakeFiles/Project.elf.dir/Lib/Src/stm32f10x_flash.c.obj
 .text.FLASH_EraseAllPages
                0x0000000000000000       0x3c CMakeFiles/Project.elf.dir/Lib/Src/stm32f10x_flash.c.obj
 .text.FLASH_EraseOptionBytes
                0x0000000000000000       0x9c CMakeFiles/Project.elf.dir/Lib/Src/stm32f10x_flash.c.obj
 .text.FLASH_ProgramWord
                0x0000000000000000       0x6c CMakeFiles/Project.elf.dir/Lib/Src/stm32f10x_flash.c.obj
 .text.FLASH_ProgramHalfWord
                0x0000000000000000       0x3c CMakeFiles/Project.elf.dir/Lib/Src/stm32f10x_flash.c.obj
 .text.FLASH_ProgramOptionByteData
                0x0000000000000000       0x50 CMakeFiles/Project.elf.dir/Lib/Src/stm32f10x_flash.c.obj
 .text.FLASH_EnableWriteProtection
                0x0000000000000000       0xa8 CMakeFiles/Project.elf.dir/Lib/Src/stm32f10x_flash.c.obj
 .text.FLASH_ReadOutProtection
                0x0000000000000000       0x9c CMakeFiles/Project.elf.dir/Lib/Src/stm32f10x_flash.c.obj
 .text.FLASH_UserOptionByteConfig
                0x0000000000000000       0x64 CMakeFiles/Project.elf.dir/Lib/Src/stm32f10x_flash.c.obj
 .text.FLASH_WaitForLastBank1Operation
                0x0000000000000000       0x20 CMakeFiles/Project.elf.dir/Lib/Src/stm32f10x_flash.c.obj
 .text.FLASH_EraseAllBank1Pages
                0x0000000000000000       0x3c CMakeFiles/Project.elf.dir/Lib/Src/stm32f10x_flash.c.obj
 .debug_info    0x0000000000000000      0xae8 CMakeFiles/Project.elf.dir/Lib/Src/stm32f10x_flash.c.obj
 .debug_abbrev  0x0000000000000000      0x1cc CMakeFiles/Project.elf.dir/Lib/Src/stm32f10x_flash.c.obj
 .debug_loc     0x0000000000000000      0x717 CMakeFiles/Project.elf.dir/Lib/Src/stm32f10x_flash.c.obj
 .debug_aranges
                0x0000000000000000       0xf8 CMakeFiles/Project.elf.dir/Lib/Src/stm32f10x_flash.c.obj
 .debug_ranges  0x0000000000000000       0xe8 CMakeFiles/Project.elf.dir/Lib/Src/stm32f10x_flash.c.obj
 .debug_line    0x0000000000000000      0x97a CMakeFiles/Project.elf.dir/Lib/Src/stm32f10x_flash.c.obj
 .debug_str     0x0000000000000000      0x629 CMakeFiles/Project.elf.dir/Lib/Src/stm32f10x_flash.c.obj
 .comment       0x0000000000000000       0x34 CMakeFiles/Project.elf.dir/Lib/Src/stm32f10x_flash.c.obj
 .debug_frame   0x0000000000000000      0x254 CMakeFiles/Project.elf.dir/Lib/Src/stm32f10x_flash.c.obj
 .ARM.attributes
                0x0000000000000000       0x2d CMakeFiles/Project.elf.dir/Lib/Src/stm32f10x_flash.c.obj
 .text          0x0000000000000000        0x0 CMakeFiles/Project.elf.dir/Lib/Src/stm32f10x_fsmc.c.obj
 .data          0x0000000000000000        0x0 CMakeFiles/Project.elf.dir/Lib/Src/stm32f10x_fsmc.c.obj
 .bss           0x0000000000000000        0x0 CMakeFiles/Project.elf.dir/Lib/Src/stm32f10x_fsmc.c.obj
 .text.FSMC_NORSRAMDeInit
                0x0000000000000000       0x36 CMakeFiles/Project.elf.dir/Lib/Src/stm32f10x_fsmc.c.obj
 .text.FSMC_NANDDeInit
                0x0000000000000000       0x38 CMakeFiles/Project.elf.dir/Lib/Src/stm32f10x_fsmc.c.obj
 .text.FSMC_PCCARDDeInit
                0x0000000000000000       0x22 CMakeFiles/Project.elf.dir/Lib/Src/stm32f10x_fsmc.c.obj
 .text.FSMC_NORSRAMInit
                0x0000000000000000       0xc8 CMakeFiles/Project.elf.dir/Lib/Src/stm32f10x_fsmc.c.obj
 .text.FSMC_NANDInit
                0x0000000000000000       0x76 CMakeFiles/Project.elf.dir/Lib/Src/stm32f10x_fsmc.c.obj
 .text.FSMC_PCCARDInit
                0x0000000000000000       0x72 CMakeFiles/Project.elf.dir/Lib/Src/stm32f10x_fsmc.c.obj
 .text.FSMC_NORSRAMStructInit
                0x0000000000000000       0x84 CMakeFiles/Project.elf.dir/Lib/Src/stm32f10x_fsmc.c.obj
 .text.FSMC_NANDStructInit
                0x0000000000000000       0x36 CMakeFiles/Project.elf.dir/Lib/Src/stm32f10x_fsmc.c.obj
 .text.FSMC_PCCARDStructInit
                0x0000000000000000       0x3c CMakeFiles/Project.elf.dir/Lib/Src/stm32f10x_fsmc.c.obj
 .text.FSMC_NORSRAMCmd
                0x0000000000000000       0x2c CMakeFiles/Project.elf.dir/Lib/Src/stm32f10x_fsmc.c.obj
 .text.FSMC_NANDCmd
                0x0000000000000000       0x50 CMakeFiles/Project.elf.dir/Lib/Src/stm32f10x_fsmc.c.obj
 .text.FSMC_PCCARDCmd
                0x0000000000000000       0x2c CMakeFiles/Project.elf.dir/Lib/Src/stm32f10x_fsmc.c.obj
 .text.FSMC_NANDECCCmd
                0x0000000000000000       0x50 CMakeFiles/Project.elf.dir/Lib/Src/stm32f10x_fsmc.c.obj
 .text.FSMC_GetECC
                0x0000000000000000       0x16 CMakeFiles/Project.elf.dir/Lib/Src/stm32f10x_fsmc.c.obj
 .text.FSMC_ITConfig
                0x0000000000000000       0x74 CMakeFiles/Project.elf.dir/Lib/Src/stm32f10x_fsmc.c.obj
 .text.FSMC_GetFlagStatus
                0x0000000000000000       0x30 CMakeFiles/Project.elf.dir/Lib/Src/stm32f10x_fsmc.c.obj
 .text.FSMC_ClearFlag
                0x0000000000000000       0x3c CMakeFiles/Project.elf.dir/Lib/Src/stm32f10x_fsmc.c.obj
 .text.FSMC_GetITStatus
                0x0000000000000000       0x3a CMakeFiles/Project.elf.dir/Lib/Src/stm32f10x_fsmc.c.obj
 .text.FSMC_ClearITPendingBit
                0x0000000000000000       0x3c CMakeFiles/Project.elf.dir/Lib/Src/stm32f10x_fsmc.c.obj
 .debug_info    0x0000000000000000      0x9cd CMakeFiles/Project.elf.dir/Lib/Src/stm32f10x_fsmc.c.obj
 .debug_abbrev  0x0000000000000000      0x1c8 CMakeFiles/Project.elf.dir/Lib/Src/stm32f10x_fsmc.c.obj
 .debug_loc     0x0000000000000000      0x663 CMakeFiles/Project.elf.dir/Lib/Src/stm32f10x_fsmc.c.obj
 .debug_aranges
                0x0000000000000000       0xb0 CMakeFiles/Project.elf.dir/Lib/Src/stm32f10x_fsmc.c.obj
 .debug_ranges  0x0000000000000000       0xa0 CMakeFiles/Project.elf.dir/Lib/Src/stm32f10x_fsmc.c.obj
 .debug_line    0x0000000000000000      0x994 CMakeFiles/Project.elf.dir/Lib/Src/stm32f10x_fsmc.c.obj
 .debug_str     0x0000000000000000      0x7bb CMakeFiles/Project.elf.dir/Lib/Src/stm32f10x_fsmc.c.obj
 .comment       0x0000000000000000       0x34 CMakeFiles/Project.elf.dir/Lib/Src/stm32f10x_fsmc.c.obj
 .debug_frame   0x0000000000000000      0x14c CMakeFiles/Project.elf.dir/Lib/Src/stm32f10x_fsmc.c.obj
 .ARM.attributes
                0x0000000000000000       0x2d CMakeFiles/Project.elf.dir/Lib/Src/stm32f10x_fsmc.c.obj
 .text          0x0000000000000000        0x0 CMakeFiles/Project.elf.dir/Lib/Src/stm32f10x_gpio.c.obj
 .data          0x0000000000000000        0x0 CMakeFiles/Project.elf.dir/Lib/Src/stm32f10x_gpio.c.obj
 .bss           0x0000000000000000        0x0 CMakeFiles/Project.elf.dir/Lib/Src/stm32f10x_gpio.c.obj
 .text.GPIO_DeInit
                0x0000000000000000       0xcc CMakeFiles/Project.elf.dir/Lib/Src/stm32f10x_gpio.c.obj
 .text.GPIO_AFIODeInit
                0x0000000000000000       0x14 CMakeFiles/Project.elf.dir/Lib/Src/stm32f10x_gpio.c.obj
 .text.GPIO_StructInit
                0x0000000000000000       0x10 CMakeFiles/Project.elf.dir/Lib/Src/stm32f10x_gpio.c.obj
 .text.GPIO_ReadInputData
                0x0000000000000000        0x6 CMakeFiles/Project.elf.dir/Lib/Src/stm32f10x_gpio.c.obj
 .text.GPIO_ReadOutputDataBit
                0x0000000000000000        0xe CMakeFiles/Project.elf.dir/Lib/Src/stm32f10x_gpio.c.obj
 .text.GPIO_ReadOutputData
                0x0000000000000000        0x6 CMakeFiles/Project.elf.dir/Lib/Src/stm32f10x_gpio.c.obj
 .text.GPIO_WriteBit
                0x0000000000000000        0xa CMakeFiles/Project.elf.dir/Lib/Src/stm32f10x_gpio.c.obj
 .text.GPIO_Write
                0x0000000000000000        0x4 CMakeFiles/Project.elf.dir/Lib/Src/stm32f10x_gpio.c.obj
 .text.GPIO_PinLockConfig
                0x0000000000000000       0x10 CMakeFiles/Project.elf.dir/Lib/Src/stm32f10x_gpio.c.obj
 .text.GPIO_EventOutputConfig
                0x0000000000000000       0x1c CMakeFiles/Project.elf.dir/Lib/Src/stm32f10x_gpio.c.obj
 .text.GPIO_EventOutputCmd
                0x0000000000000000        0xc CMakeFiles/Project.elf.dir/Lib/Src/stm32f10x_gpio.c.obj
 .text.GPIO_PinRemapConfig
                0x0000000000000000       0x7c CMakeFiles/Project.elf.dir/Lib/Src/stm32f10x_gpio.c.obj
 .text.GPIO_EXTILineConfig
                0x0000000000000000       0x34 CMakeFiles/Project.elf.dir/Lib/Src/stm32f10x_gpio.c.obj
 .text.GPIO_ETH_MediaInterfaceConfig
                0x0000000000000000        0xc CMakeFiles/Project.elf.dir/Lib/Src/stm32f10x_gpio.c.obj
 .text          0x0000000000000000        0x0 CMakeFiles/Project.elf.dir/Lib/Src/stm32f10x_i2c.c.obj
 .data          0x0000000000000000        0x0 CMakeFiles/Project.elf.dir/Lib/Src/stm32f10x_i2c.c.obj
 .bss           0x0000000000000000        0x0 CMakeFiles/Project.elf.dir/Lib/Src/stm32f10x_i2c.c.obj
 .text.I2C_StructInit
                0x0000000000000000       0x1c CMakeFiles/Project.elf.dir/Lib/Src/stm32f10x_i2c.c.obj
 .text.I2C_DMACmd
                0x0000000000000000       0x1c CMakeFiles/Project.elf.dir/Lib/Src/stm32f10x_i2c.c.obj
 .text.I2C_DMALastTransferCmd
                0x0000000000000000       0x1c CMakeFiles/Project.elf.dir/Lib/Src/stm32f10x_i2c.c.obj
 .text.I2C_AcknowledgeConfig
                0x0000000000000000       0x1c CMakeFiles/Project.elf.dir/Lib/Src/stm32f10x_i2c.c.obj
 .text.I2C_OwnAddress2Config
                0x0000000000000000       0x12 CMakeFiles/Project.elf.dir/Lib/Src/stm32f10x_i2c.c.obj
 .text.I2C_DualAddressCmd
                0x0000000000000000       0x1c CMakeFiles/Project.elf.dir/Lib/Src/stm32f10x_i2c.c.obj
 .text.I2C_GeneralCallCmd
                0x0000000000000000       0x1c CMakeFiles/Project.elf.dir/Lib/Src/stm32f10x_i2c.c.obj
 .text.I2C_ITConfig
                0x0000000000000000       0x18 CMakeFiles/Project.elf.dir/Lib/Src/stm32f10x_i2c.c.obj
 .text.I2C_ReceiveData
                0x0000000000000000        0x6 CMakeFiles/Project.elf.dir/Lib/Src/stm32f10x_i2c.c.obj
 .text.I2C_ReadRegister
                0x0000000000000000       0x18 CMakeFiles/Project.elf.dir/Lib/Src/stm32f10x_i2c.c.obj
 .text.I2C_SoftwareResetCmd
                0x0000000000000000       0x1c CMakeFiles/Project.elf.dir/Lib/Src/stm32f10x_i2c.c.obj
 .text.I2C_NACKPositionConfig
                0x0000000000000000       0x20 CMakeFiles/Project.elf.dir/Lib/Src/stm32f10x_i2c.c.obj
 .text.I2C_SMBusAlertConfig
                0x0000000000000000       0x20 CMakeFiles/Project.elf.dir/Lib/Src/stm32f10x_i2c.c.obj
 .text.I2C_TransmitPEC
                0x0000000000000000       0x1c CMakeFiles/Project.elf.dir/Lib/Src/stm32f10x_i2c.c.obj
 .text.I2C_PECPositionConfig
                0x0000000000000000       0x20 CMakeFiles/Project.elf.dir/Lib/Src/stm32f10x_i2c.c.obj
 .text.I2C_CalculatePEC
                0x0000000000000000       0x1c CMakeFiles/Project.elf.dir/Lib/Src/stm32f10x_i2c.c.obj
 .text.I2C_GetPEC
                0x0000000000000000        0x8 CMakeFiles/Project.elf.dir/Lib/Src/stm32f10x_i2c.c.obj
 .text.I2C_ARPCmd
                0x0000000000000000       0x1c CMakeFiles/Project.elf.dir/Lib/Src/stm32f10x_i2c.c.obj
 .text.I2C_StretchClockCmd
                0x0000000000000000       0x1c CMakeFiles/Project.elf.dir/Lib/Src/stm32f10x_i2c.c.obj
 .text.I2C_FastModeDutyCycleConfig
                0x0000000000000000       0x20 CMakeFiles/Project.elf.dir/Lib/Src/stm32f10x_i2c.c.obj
 .text.I2C_GetLastEvent
                0x0000000000000000       0x10 CMakeFiles/Project.elf.dir/Lib/Src/stm32f10x_i2c.c.obj
 .text.I2C_ClearFlag
                0x0000000000000000        0xc CMakeFiles/Project.elf.dir/Lib/Src/stm32f10x_i2c.c.obj
 .text.I2C_GetITStatus
                0x0000000000000000       0x20 CMakeFiles/Project.elf.dir/Lib/Src/stm32f10x_i2c.c.obj
 .text.I2C_ClearITPendingBit
                0x0000000000000000        0xc CMakeFiles/Project.elf.dir/Lib/Src/stm32f10x_i2c.c.obj
 .text          0x0000000000000000        0x0 CMakeFiles/Project.elf.dir/Lib/Src/stm32f10x_iwdg.c.obj
 .data          0x0000000000000000        0x0 CMakeFiles/Project.elf.dir/Lib/Src/stm32f10x_iwdg.c.obj
 .bss           0x0000000000000000        0x0 CMakeFiles/Project.elf.dir/Lib/Src/stm32f10x_iwdg.c.obj
 .text.IWDG_WriteAccessCmd
                0x0000000000000000        0xc CMakeFiles/Project.elf.dir/Lib/Src/stm32f10x_iwdg.c.obj
 .text.IWDG_SetPrescaler
                0x0000000000000000        0xc CMakeFiles/Project.elf.dir/Lib/Src/stm32f10x_iwdg.c.obj
 .text.IWDG_SetReload
                0x0000000000000000        0xc CMakeFiles/Project.elf.dir/Lib/Src/stm32f10x_iwdg.c.obj
 .text.IWDG_ReloadCounter
                0x0000000000000000       0x10 CMakeFiles/Project.elf.dir/Lib/Src/stm32f10x_iwdg.c.obj
 .text.IWDG_Enable
                0x0000000000000000       0x10 CMakeFiles/Project.elf.dir/Lib/Src/stm32f10x_iwdg.c.obj
 .text.IWDG_GetFlagStatus
                0x0000000000000000       0x14 CMakeFiles/Project.elf.dir/Lib/Src/stm32f10x_iwdg.c.obj
 .debug_info    0x0000000000000000      0x208 CMakeFiles/Project.elf.dir/Lib/Src/stm32f10x_iwdg.c.obj
 .debug_abbrev  0x0000000000000000      0x13b CMakeFiles/Project.elf.dir/Lib/Src/stm32f10x_iwdg.c.obj
 .debug_loc     0x0000000000000000       0x65 CMakeFiles/Project.elf.dir/Lib/Src/stm32f10x_iwdg.c.obj
 .debug_aranges
                0x0000000000000000       0x48 CMakeFiles/Project.elf.dir/Lib/Src/stm32f10x_iwdg.c.obj
 .debug_ranges  0x0000000000000000       0x38 CMakeFiles/Project.elf.dir/Lib/Src/stm32f10x_iwdg.c.obj
 .debug_line    0x0000000000000000      0x177 CMakeFiles/Project.elf.dir/Lib/Src/stm32f10x_iwdg.c.obj
 .debug_str     0x0000000000000000      0x29d CMakeFiles/Project.elf.dir/Lib/Src/stm32f10x_iwdg.c.obj
 .comment       0x0000000000000000       0x34 CMakeFiles/Project.elf.dir/Lib/Src/stm32f10x_iwdg.c.obj
 .debug_frame   0x0000000000000000       0x70 CMakeFiles/Project.elf.dir/Lib/Src/stm32f10x_iwdg.c.obj
 .ARM.attributes
                0x0000000000000000       0x2d CMakeFiles/Project.elf.dir/Lib/Src/stm32f10x_iwdg.c.obj
 .text          0x0000000000000000        0x0 CMakeFiles/Project.elf.dir/Lib/Src/stm32f10x_pwr.c.obj
 .data          0x0000000000000000        0x0 CMakeFiles/Project.elf.dir/Lib/Src/stm32f10x_pwr.c.obj
 .bss           0x0000000000000000        0x0 CMakeFiles/Project.elf.dir/Lib/Src/stm32f10x_pwr.c.obj
 .text.PWR_DeInit
                0x0000000000000000       0x18 CMakeFiles/Project.elf.dir/Lib/Src/stm32f10x_pwr.c.obj
 .text.PWR_BackupAccessCmd
                0x0000000000000000        0xc CMakeFiles/Project.elf.dir/Lib/Src/stm32f10x_pwr.c.obj
 .text.PWR_PVDCmd
                0x0000000000000000        0xc CMakeFiles/Project.elf.dir/Lib/Src/stm32f10x_pwr.c.obj
 .text.PWR_PVDLevelConfig
                0x0000000000000000       0x14 CMakeFiles/Project.elf.dir/Lib/Src/stm32f10x_pwr.c.obj
 .text.PWR_WakeUpPinCmd
                0x0000000000000000        0xc CMakeFiles/Project.elf.dir/Lib/Src/stm32f10x_pwr.c.obj
 .text.PWR_EnterSTOPMode
                0x0000000000000000       0x34 CMakeFiles/Project.elf.dir/Lib/Src/stm32f10x_pwr.c.obj
 .text.PWR_EnterSTANDBYMode
                0x0000000000000000       0x28 CMakeFiles/Project.elf.dir/Lib/Src/stm32f10x_pwr.c.obj
 .text.PWR_GetFlagStatus
                0x0000000000000000       0x14 CMakeFiles/Project.elf.dir/Lib/Src/stm32f10x_pwr.c.obj
 .text.PWR_ClearFlag
                0x0000000000000000       0x10 CMakeFiles/Project.elf.dir/Lib/Src/stm32f10x_pwr.c.obj
 .debug_info    0x0000000000000000      0x4d9 CMakeFiles/Project.elf.dir/Lib/Src/stm32f10x_pwr.c.obj
 .debug_abbrev  0x0000000000000000      0x1ee CMakeFiles/Project.elf.dir/Lib/Src/stm32f10x_pwr.c.obj
 .debug_loc     0x0000000000000000       0xbc CMakeFiles/Project.elf.dir/Lib/Src/stm32f10x_pwr.c.obj
 .debug_aranges
                0x0000000000000000       0x60 CMakeFiles/Project.elf.dir/Lib/Src/stm32f10x_pwr.c.obj
 .debug_ranges  0x0000000000000000       0x50 CMakeFiles/Project.elf.dir/Lib/Src/stm32f10x_pwr.c.obj
 .debug_line    0x0000000000000000      0x2aa CMakeFiles/Project.elf.dir/Lib/Src/stm32f10x_pwr.c.obj
 .debug_str     0x0000000000000000      0x36a CMakeFiles/Project.elf.dir/Lib/Src/stm32f10x_pwr.c.obj
 .comment       0x0000000000000000       0x34 CMakeFiles/Project.elf.dir/Lib/Src/stm32f10x_pwr.c.obj
 .debug_frame   0x0000000000000000       0xa8 CMakeFiles/Project.elf.dir/Lib/Src/stm32f10x_pwr.c.obj
 .ARM.attributes
                0x0000000000000000       0x2d CMakeFiles/Project.elf.dir/Lib/Src/stm32f10x_pwr.c.obj
 .text          0x0000000000000000        0x0 CMakeFiles/Project.elf.dir/Lib/Src/stm32f10x_rcc.c.obj
 .data          0x0000000000000000        0x0 CMakeFiles/Project.elf.dir/Lib/Src/stm32f10x_rcc.c.obj
 .bss           0x0000000000000000        0x0 CMakeFiles/Project.elf.dir/Lib/Src/stm32f10x_rcc.c.obj
 .text.RCC_DeInit
                0x0000000000000000       0x40 CMakeFiles/Project.elf.dir/Lib/Src/stm32f10x_rcc.c.obj
 .text.RCC_HSEConfig
                0x0000000000000000       0x3c CMakeFiles/Project.elf.dir/Lib/Src/stm32f10x_rcc.c.obj
 .text.RCC_AdjustHSICalibrationValue
                0x0000000000000000       0x14 CMakeFiles/Project.elf.dir/Lib/Src/stm32f10x_rcc.c.obj
 .text.RCC_HSICmd
                0x0000000000000000        0xc CMakeFiles/Project.elf.dir/Lib/Src/stm32f10x_rcc.c.obj
 .text.RCC_PLLConfig
                0x0000000000000000       0x14 CMakeFiles/Project.elf.dir/Lib/Src/stm32f10x_rcc.c.obj
 .text.RCC_PLLCmd
                0x0000000000000000        0xc CMakeFiles/Project.elf.dir/Lib/Src/stm32f10x_rcc.c.obj
 .text.RCC_SYSCLKConfig
                0x0000000000000000       0x14 CMakeFiles/Project.elf.dir/Lib/Src/stm32f10x_rcc.c.obj
 .text.RCC_GetSYSCLKSource
                0x0000000000000000       0x10 CMakeFiles/Project.elf.dir/Lib/Src/stm32f10x_rcc.c.obj
 .text.RCC_HCLKConfig
                0x0000000000000000       0x14 CMakeFiles/Project.elf.dir/Lib/Src/stm32f10x_rcc.c.obj
 .text.RCC_PCLK1Config
                0x0000000000000000       0x14 CMakeFiles/Project.elf.dir/Lib/Src/stm32f10x_rcc.c.obj
 .text.RCC_PCLK2Config
                0x0000000000000000       0x14 CMakeFiles/Project.elf.dir/Lib/Src/stm32f10x_rcc.c.obj
 .text.RCC_ITConfig
                0x0000000000000000       0x1c CMakeFiles/Project.elf.dir/Lib/Src/stm32f10x_rcc.c.obj
 .text.RCC_USBCLKConfig
                0x0000000000000000        0xc CMakeFiles/Project.elf.dir/Lib/Src/stm32f10x_rcc.c.obj
 .text.RCC_ADCCLKConfig
                0x0000000000000000       0x14 CMakeFiles/Project.elf.dir/Lib/Src/stm32f10x_rcc.c.obj
 .text.RCC_LSEConfig
                0x0000000000000000       0x30 CMakeFiles/Project.elf.dir/Lib/Src/stm32f10x_rcc.c.obj
 .text.RCC_LSICmd
                0x0000000000000000        0xc CMakeFiles/Project.elf.dir/Lib/Src/stm32f10x_rcc.c.obj
 .text.RCC_RTCCLKConfig
                0x0000000000000000       0x10 CMakeFiles/Project.elf.dir/Lib/Src/stm32f10x_rcc.c.obj
 .text.RCC_RTCCLKCmd
                0x0000000000000000        0xc CMakeFiles/Project.elf.dir/Lib/Src/stm32f10x_rcc.c.obj
 .text.RCC_AHBPeriphClockCmd
                0x0000000000000000       0x1c CMakeFiles/Project.elf.dir/Lib/Src/stm32f10x_rcc.c.obj
 .text.RCC_APB2PeriphResetCmd
                0x0000000000000000       0x1c CMakeFiles/Project.elf.dir/Lib/Src/stm32f10x_rcc.c.obj
 .text.RCC_BackupResetCmd
                0x0000000000000000        0xc CMakeFiles/Project.elf.dir/Lib/Src/stm32f10x_rcc.c.obj
 .text.RCC_ClockSecuritySystemCmd
                0x0000000000000000        0xc CMakeFiles/Project.elf.dir/Lib/Src/stm32f10x_rcc.c.obj
 .text.RCC_MCOConfig
                0x0000000000000000        0xc CMakeFiles/Project.elf.dir/Lib/Src/stm32f10x_rcc.c.obj
 .text.RCC_GetFlagStatus
                0x0000000000000000       0x34 CMakeFiles/Project.elf.dir/Lib/Src/stm32f10x_rcc.c.obj
 .text.RCC_WaitForHSEStartUp
                0x0000000000000000       0x30 CMakeFiles/Project.elf.dir/Lib/Src/stm32f10x_rcc.c.obj
 .text.RCC_ClearFlag
                0x0000000000000000       0x10 CMakeFiles/Project.elf.dir/Lib/Src/stm32f10x_rcc.c.obj
 .text.RCC_GetITStatus
                0x0000000000000000       0x14 CMakeFiles/Project.elf.dir/Lib/Src/stm32f10x_rcc.c.obj
 .text.RCC_ClearITPendingBit
                0x0000000000000000        0xc CMakeFiles/Project.elf.dir/Lib/Src/stm32f10x_rcc.c.obj
 .text          0x0000000000000000        0x0 CMakeFiles/Project.elf.dir/Lib/Src/stm32f10x_rtc.c.obj
 .data          0x0000000000000000        0x0 CMakeFiles/Project.elf.dir/Lib/Src/stm32f10x_rtc.c.obj
 .bss           0x0000000000000000        0x0 CMakeFiles/Project.elf.dir/Lib/Src/stm32f10x_rtc.c.obj
 .text.RTC_ITConfig
                0x0000000000000000       0x20 CMakeFiles/Project.elf.dir/Lib/Src/stm32f10x_rtc.c.obj
 .text.RTC_EnterConfigMode
                0x0000000000000000       0x14 CMakeFiles/Project.elf.dir/Lib/Src/stm32f10x_rtc.c.obj
 .text.RTC_ExitConfigMode
                0x0000000000000000       0x14 CMakeFiles/Project.elf.dir/Lib/Src/stm32f10x_rtc.c.obj
 .text.RTC_GetCounter
                0x0000000000000000       0x14 CMakeFiles/Project.elf.dir/Lib/Src/stm32f10x_rtc.c.obj
 .text.RTC_SetCounter
                0x0000000000000000       0x1c CMakeFiles/Project.elf.dir/Lib/Src/stm32f10x_rtc.c.obj
 .text.RTC_SetPrescaler
                0x0000000000000000       0x20 CMakeFiles/Project.elf.dir/Lib/Src/stm32f10x_rtc.c.obj
 .text.RTC_SetAlarm
                0x0000000000000000       0x1c CMakeFiles/Project.elf.dir/Lib/Src/stm32f10x_rtc.c.obj
 .text.RTC_GetDivider
                0x0000000000000000       0x18 CMakeFiles/Project.elf.dir/Lib/Src/stm32f10x_rtc.c.obj
 .text.RTC_WaitForLastTask
                0x0000000000000000       0x10 CMakeFiles/Project.elf.dir/Lib/Src/stm32f10x_rtc.c.obj
 .text.RTC_WaitForSynchro
                0x0000000000000000       0x20 CMakeFiles/Project.elf.dir/Lib/Src/stm32f10x_rtc.c.obj
 .text.RTC_GetFlagStatus
                0x0000000000000000       0x14 CMakeFiles/Project.elf.dir/Lib/Src/stm32f10x_rtc.c.obj
 .text.RTC_ClearFlag
                0x0000000000000000       0x14 CMakeFiles/Project.elf.dir/Lib/Src/stm32f10x_rtc.c.obj
 .text.RTC_GetITStatus
                0x0000000000000000       0x20 CMakeFiles/Project.elf.dir/Lib/Src/stm32f10x_rtc.c.obj
 .text.RTC_ClearITPendingBit
                0x0000000000000000       0x14 CMakeFiles/Project.elf.dir/Lib/Src/stm32f10x_rtc.c.obj
 .debug_info    0x0000000000000000      0x4c4 CMakeFiles/Project.elf.dir/Lib/Src/stm32f10x_rtc.c.obj
 .debug_abbrev  0x0000000000000000      0x1cd CMakeFiles/Project.elf.dir/Lib/Src/stm32f10x_rtc.c.obj
 .debug_loc     0x0000000000000000      0x27b CMakeFiles/Project.elf.dir/Lib/Src/stm32f10x_rtc.c.obj
 .debug_aranges
                0x0000000000000000       0x88 CMakeFiles/Project.elf.dir/Lib/Src/stm32f10x_rtc.c.obj
 .debug_ranges  0x0000000000000000       0x78 CMakeFiles/Project.elf.dir/Lib/Src/stm32f10x_rtc.c.obj
 .debug_line    0x0000000000000000      0x330 CMakeFiles/Project.elf.dir/Lib/Src/stm32f10x_rtc.c.obj
 .debug_str     0x0000000000000000      0x3e3 CMakeFiles/Project.elf.dir/Lib/Src/stm32f10x_rtc.c.obj
 .comment       0x0000000000000000       0x34 CMakeFiles/Project.elf.dir/Lib/Src/stm32f10x_rtc.c.obj
 .debug_frame   0x0000000000000000      0x108 CMakeFiles/Project.elf.dir/Lib/Src/stm32f10x_rtc.c.obj
 .ARM.attributes
                0x0000000000000000       0x2d CMakeFiles/Project.elf.dir/Lib/Src/stm32f10x_rtc.c.obj
 .text          0x0000000000000000        0x0 CMakeFiles/Project.elf.dir/Lib/Src/stm32f10x_sdio.c.obj
 .data          0x0000000000000000        0x0 CMakeFiles/Project.elf.dir/Lib/Src/stm32f10x_sdio.c.obj
 .bss           0x0000000000000000        0x0 CMakeFiles/Project.elf.dir/Lib/Src/stm32f10x_sdio.c.obj
 .text.SDIO_DeInit
                0x0000000000000000       0x24 CMakeFiles/Project.elf.dir/Lib/Src/stm32f10x_sdio.c.obj
 .text.SDIO_Init
                0x0000000000000000       0x30 CMakeFiles/Project.elf.dir/Lib/Src/stm32f10x_sdio.c.obj
 .text.SDIO_StructInit
                0x0000000000000000       0x10 CMakeFiles/Project.elf.dir/Lib/Src/stm32f10x_sdio.c.obj
 .text.SDIO_ClockCmd
                0x0000000000000000        0xc CMakeFiles/Project.elf.dir/Lib/Src/stm32f10x_sdio.c.obj
 .text.SDIO_SetPowerState
                0x0000000000000000       0x18 CMakeFiles/Project.elf.dir/Lib/Src/stm32f10x_sdio.c.obj
 .text.SDIO_GetPowerState
                0x0000000000000000       0x10 CMakeFiles/Project.elf.dir/Lib/Src/stm32f10x_sdio.c.obj
 .text.SDIO_ITConfig
                0x0000000000000000       0x1c CMakeFiles/Project.elf.dir/Lib/Src/stm32f10x_sdio.c.obj
 .text.SDIO_DMACmd
                0x0000000000000000        0xc CMakeFiles/Project.elf.dir/Lib/Src/stm32f10x_sdio.c.obj
 .text.SDIO_SendCommand
                0x0000000000000000       0x2c CMakeFiles/Project.elf.dir/Lib/Src/stm32f10x_sdio.c.obj
 .text.SDIO_CmdStructInit
                0x0000000000000000        0xe CMakeFiles/Project.elf.dir/Lib/Src/stm32f10x_sdio.c.obj
 .text.SDIO_GetCommandResponse
                0x0000000000000000        0xc CMakeFiles/Project.elf.dir/Lib/Src/stm32f10x_sdio.c.obj
 .text.SDIO_GetResponse
                0x0000000000000000       0x18 CMakeFiles/Project.elf.dir/Lib/Src/stm32f10x_sdio.c.obj
 .text.SDIO_DataConfig
                0x0000000000000000       0x2c CMakeFiles/Project.elf.dir/Lib/Src/stm32f10x_sdio.c.obj
 .text.SDIO_DataStructInit
                0x0000000000000000       0x14 CMakeFiles/Project.elf.dir/Lib/Src/stm32f10x_sdio.c.obj
 .text.SDIO_GetDataCounter
                0x0000000000000000        0xc CMakeFiles/Project.elf.dir/Lib/Src/stm32f10x_sdio.c.obj
 .text.SDIO_ReadData
                0x0000000000000000        0xc CMakeFiles/Project.elf.dir/Lib/Src/stm32f10x_sdio.c.obj
 .text.SDIO_WriteData
                0x0000000000000000        0xc CMakeFiles/Project.elf.dir/Lib/Src/stm32f10x_sdio.c.obj
 .text.SDIO_GetFIFOCount
                0x0000000000000000        0xc CMakeFiles/Project.elf.dir/Lib/Src/stm32f10x_sdio.c.obj
 .text.SDIO_StartSDIOReadWait
                0x0000000000000000        0xc CMakeFiles/Project.elf.dir/Lib/Src/stm32f10x_sdio.c.obj
 .text.SDIO_StopSDIOReadWait
                0x0000000000000000        0xc CMakeFiles/Project.elf.dir/Lib/Src/stm32f10x_sdio.c.obj
 .text.SDIO_SetSDIOReadWaitMode
                0x0000000000000000        0xc CMakeFiles/Project.elf.dir/Lib/Src/stm32f10x_sdio.c.obj
 .text.SDIO_SetSDIOOperation
                0x0000000000000000        0xc CMakeFiles/Project.elf.dir/Lib/Src/stm32f10x_sdio.c.obj
 .text.SDIO_SendSDIOSuspendCmd
                0x0000000000000000        0xc CMakeFiles/Project.elf.dir/Lib/Src/stm32f10x_sdio.c.obj
 .text.SDIO_CommandCompletionCmd
                0x0000000000000000        0xc CMakeFiles/Project.elf.dir/Lib/Src/stm32f10x_sdio.c.obj
 .text.SDIO_CEATAITCmd
                0x0000000000000000       0x14 CMakeFiles/Project.elf.dir/Lib/Src/stm32f10x_sdio.c.obj
 .text.SDIO_SendCEATACmd
                0x0000000000000000        0xc CMakeFiles/Project.elf.dir/Lib/Src/stm32f10x_sdio.c.obj
 .text.SDIO_GetFlagStatus
                0x0000000000000000       0x14 CMakeFiles/Project.elf.dir/Lib/Src/stm32f10x_sdio.c.obj
 .text.SDIO_ClearFlag
                0x0000000000000000        0xc CMakeFiles/Project.elf.dir/Lib/Src/stm32f10x_sdio.c.obj
 .text.SDIO_GetITStatus
                0x0000000000000000       0x14 CMakeFiles/Project.elf.dir/Lib/Src/stm32f10x_sdio.c.obj
 .text.SDIO_ClearITPendingBit
                0x0000000000000000        0xc CMakeFiles/Project.elf.dir/Lib/Src/stm32f10x_sdio.c.obj
 .debug_info    0x0000000000000000      0x875 CMakeFiles/Project.elf.dir/Lib/Src/stm32f10x_sdio.c.obj
 .debug_abbrev  0x0000000000000000      0x1f6 CMakeFiles/Project.elf.dir/Lib/Src/stm32f10x_sdio.c.obj
 .debug_loc     0x0000000000000000      0x26f CMakeFiles/Project.elf.dir/Lib/Src/stm32f10x_sdio.c.obj
 .debug_aranges
                0x0000000000000000      0x108 CMakeFiles/Project.elf.dir/Lib/Src/stm32f10x_sdio.c.obj
 .debug_ranges  0x0000000000000000       0xf8 CMakeFiles/Project.elf.dir/Lib/Src/stm32f10x_sdio.c.obj
 .debug_line    0x0000000000000000      0x60d CMakeFiles/Project.elf.dir/Lib/Src/stm32f10x_sdio.c.obj
 .debug_str     0x0000000000000000      0x671 CMakeFiles/Project.elf.dir/Lib/Src/stm32f10x_sdio.c.obj
 .comment       0x0000000000000000       0x34 CMakeFiles/Project.elf.dir/Lib/Src/stm32f10x_sdio.c.obj
 .debug_frame   0x0000000000000000      0x21c CMakeFiles/Project.elf.dir/Lib/Src/stm32f10x_sdio.c.obj
 .ARM.attributes
                0x0000000000000000       0x2d CMakeFiles/Project.elf.dir/Lib/Src/stm32f10x_sdio.c.obj
 .text          0x0000000000000000        0x0 CMakeFiles/Project.elf.dir/Lib/Src/stm32f10x_spi.c.obj
 .data          0x0000000000000000        0x0 CMakeFiles/Project.elf.dir/Lib/Src/stm32f10x_spi.c.obj
 .bss           0x0000000000000000        0x0 CMakeFiles/Project.elf.dir/Lib/Src/stm32f10x_spi.c.obj
 .text.SPI_I2S_DeInit
                0x0000000000000000       0x64 CMakeFiles/Project.elf.dir/Lib/Src/stm32f10x_spi.c.obj
 .text.SPI_Init
                0x0000000000000000       0x4e CMakeFiles/Project.elf.dir/Lib/Src/stm32f10x_spi.c.obj
 .text.I2S_Init
                0x0000000000000000       0xb8 CMakeFiles/Project.elf.dir/Lib/Src/stm32f10x_spi.c.obj
 .text.SPI_StructInit
                0x0000000000000000       0x18 CMakeFiles/Project.elf.dir/Lib/Src/stm32f10x_spi.c.obj
 .text.I2S_StructInit
                0x0000000000000000       0x12 CMakeFiles/Project.elf.dir/Lib/Src/stm32f10x_spi.c.obj
 .text.SPI_Cmd  0x0000000000000000       0x1c CMakeFiles/Project.elf.dir/Lib/Src/stm32f10x_spi.c.obj
 .text.I2S_Cmd  0x0000000000000000       0x1c CMakeFiles/Project.elf.dir/Lib/Src/stm32f10x_spi.c.obj
 .text.SPI_I2S_ITConfig
                0x0000000000000000       0x20 CMakeFiles/Project.elf.dir/Lib/Src/stm32f10x_spi.c.obj
 .text.SPI_I2S_DMACmd
                0x0000000000000000       0x18 CMakeFiles/Project.elf.dir/Lib/Src/stm32f10x_spi.c.obj
 .text.SPI_I2S_SendData
                0x0000000000000000        0x4 CMakeFiles/Project.elf.dir/Lib/Src/stm32f10x_spi.c.obj
 .text.SPI_I2S_ReceiveData
                0x0000000000000000        0x6 CMakeFiles/Project.elf.dir/Lib/Src/stm32f10x_spi.c.obj
 .text.SPI_NSSInternalSoftwareConfig
                0x0000000000000000       0x22 CMakeFiles/Project.elf.dir/Lib/Src/stm32f10x_spi.c.obj
 .text.SPI_SSOutputCmd
                0x0000000000000000       0x1c CMakeFiles/Project.elf.dir/Lib/Src/stm32f10x_spi.c.obj
 .text.SPI_DataSizeConfig
                0x0000000000000000       0x16 CMakeFiles/Project.elf.dir/Lib/Src/stm32f10x_spi.c.obj
 .text.SPI_TransmitCRC
                0x0000000000000000        0xc CMakeFiles/Project.elf.dir/Lib/Src/stm32f10x_spi.c.obj
 .text.SPI_CalculateCRC
                0x0000000000000000       0x1c CMakeFiles/Project.elf.dir/Lib/Src/stm32f10x_spi.c.obj
 .text.SPI_GetCRC
                0x0000000000000000       0x10 CMakeFiles/Project.elf.dir/Lib/Src/stm32f10x_spi.c.obj
 .text.SPI_GetCRCPolynomial
                0x0000000000000000        0x6 CMakeFiles/Project.elf.dir/Lib/Src/stm32f10x_spi.c.obj
 .text.SPI_BiDirectionalLineConfig
                0x0000000000000000       0x20 CMakeFiles/Project.elf.dir/Lib/Src/stm32f10x_spi.c.obj
 .text.SPI_I2S_GetFlagStatus
                0x0000000000000000        0xe CMakeFiles/Project.elf.dir/Lib/Src/stm32f10x_spi.c.obj
 .text.SPI_I2S_ClearFlag
                0x0000000000000000        0x8 CMakeFiles/Project.elf.dir/Lib/Src/stm32f10x_spi.c.obj
 .text.SPI_I2S_GetITStatus
                0x0000000000000000       0x2c CMakeFiles/Project.elf.dir/Lib/Src/stm32f10x_spi.c.obj
 .text.SPI_I2S_ClearITPendingBit
                0x0000000000000000       0x12 CMakeFiles/Project.elf.dir/Lib/Src/stm32f10x_spi.c.obj
 .debug_info    0x0000000000000000      0xaa8 CMakeFiles/Project.elf.dir/Lib/Src/stm32f10x_spi.c.obj
 .debug_abbrev  0x0000000000000000      0x1f2 CMakeFiles/Project.elf.dir/Lib/Src/stm32f10x_spi.c.obj
 .debug_loc     0x0000000000000000      0x6e3 CMakeFiles/Project.elf.dir/Lib/Src/stm32f10x_spi.c.obj
 .debug_aranges
                0x0000000000000000       0xd0 CMakeFiles/Project.elf.dir/Lib/Src/stm32f10x_spi.c.obj
 .debug_ranges  0x0000000000000000       0xc0 CMakeFiles/Project.elf.dir/Lib/Src/stm32f10x_spi.c.obj
 .debug_line    0x0000000000000000      0x6c1 CMakeFiles/Project.elf.dir/Lib/Src/stm32f10x_spi.c.obj
 .debug_str     0x0000000000000000      0x67e CMakeFiles/Project.elf.dir/Lib/Src/stm32f10x_spi.c.obj
 .comment       0x0000000000000000       0x34 CMakeFiles/Project.elf.dir/Lib/Src/stm32f10x_spi.c.obj
 .debug_frame   0x0000000000000000      0x1b0 CMakeFiles/Project.elf.dir/Lib/Src/stm32f10x_spi.c.obj
 .ARM.attributes
                0x0000000000000000       0x2d CMakeFiles/Project.elf.dir/Lib/Src/stm32f10x_spi.c.obj
 .text          0x0000000000000000        0x0 CMakeFiles/Project.elf.dir/Lib/Src/stm32f10x_tim.c.obj
 .data          0x0000000000000000        0x0 CMakeFiles/Project.elf.dir/Lib/Src/stm32f10x_tim.c.obj
 .bss           0x0000000000000000        0x0 CMakeFiles/Project.elf.dir/Lib/Src/stm32f10x_tim.c.obj
 .text.TI1_Config
                0x0000000000000000       0x88 CMakeFiles/Project.elf.dir/Lib/Src/stm32f10x_tim.c.obj
 .text.TI2_Config
                0x0000000000000000       0x94 CMakeFiles/Project.elf.dir/Lib/Src/stm32f10x_tim.c.obj
 .text.TI3_Config
                0x0000000000000000       0x84 CMakeFiles/Project.elf.dir/Lib/Src/stm32f10x_tim.c.obj
 .text.TI4_Config
                0x0000000000000000       0x98 CMakeFiles/Project.elf.dir/Lib/Src/stm32f10x_tim.c.obj
 .text.TIM_DeInit
                0x0000000000000000      0x20c CMakeFiles/Project.elf.dir/Lib/Src/stm32f10x_tim.c.obj
 .text.TIM_TimeBaseInit
                0x0000000000000000       0x94 CMakeFiles/Project.elf.dir/Lib/Src/stm32f10x_tim.c.obj
 .text.TIM_OC1Init
                0x0000000000000000       0x8c CMakeFiles/Project.elf.dir/Lib/Src/stm32f10x_tim.c.obj
 .text.TIM_OC2Init
                0x0000000000000000       0x98 CMakeFiles/Project.elf.dir/Lib/Src/stm32f10x_tim.c.obj
 .text.TIM_OC3Init
                0x0000000000000000       0x94 CMakeFiles/Project.elf.dir/Lib/Src/stm32f10x_tim.c.obj
 .text.TIM_OC4Init
                0x0000000000000000       0x80 CMakeFiles/Project.elf.dir/Lib/Src/stm32f10x_tim.c.obj
 .text.TIM_BDTRConfig
                0x0000000000000000       0x2c CMakeFiles/Project.elf.dir/Lib/Src/stm32f10x_tim.c.obj
 .text.TIM_TimeBaseStructInit
                0x0000000000000000       0x12 CMakeFiles/Project.elf.dir/Lib/Src/stm32f10x_tim.c.obj
 .text.TIM_OCStructInit
                0x0000000000000000       0x14 CMakeFiles/Project.elf.dir/Lib/Src/stm32f10x_tim.c.obj
 .text.TIM_ICStructInit
                0x0000000000000000       0x10 CMakeFiles/Project.elf.dir/Lib/Src/stm32f10x_tim.c.obj
 .text.TIM_BDTRStructInit
                0x0000000000000000       0x12 CMakeFiles/Project.elf.dir/Lib/Src/stm32f10x_tim.c.obj
 .text.TIM_Cmd  0x0000000000000000       0x1c CMakeFiles/Project.elf.dir/Lib/Src/stm32f10x_tim.c.obj
 .text.TIM_CtrlPWMOutputs
                0x0000000000000000       0x24 CMakeFiles/Project.elf.dir/Lib/Src/stm32f10x_tim.c.obj
 .text.TIM_ITConfig
                0x0000000000000000       0x18 CMakeFiles/Project.elf.dir/Lib/Src/stm32f10x_tim.c.obj
 .text.TIM_GenerateEvent
                0x0000000000000000        0x4 CMakeFiles/Project.elf.dir/Lib/Src/stm32f10x_tim.c.obj
 .text.TIM_DMAConfig
                0x0000000000000000        0x8 CMakeFiles/Project.elf.dir/Lib/Src/stm32f10x_tim.c.obj
 .text.TIM_DMACmd
                0x0000000000000000       0x18 CMakeFiles/Project.elf.dir/Lib/Src/stm32f10x_tim.c.obj
 .text.TIM_InternalClockConfig
                0x0000000000000000        0xe CMakeFiles/Project.elf.dir/Lib/Src/stm32f10x_tim.c.obj
 .text.TIM_ETRConfig
                0x0000000000000000       0x18 CMakeFiles/Project.elf.dir/Lib/Src/stm32f10x_tim.c.obj
 .text.TIM_ETRClockMode1Config
                0x0000000000000000       0x14 CMakeFiles/Project.elf.dir/Lib/Src/stm32f10x_tim.c.obj
 .text.TIM_ETRClockMode2Config
                0x0000000000000000       0x14 CMakeFiles/Project.elf.dir/Lib/Src/stm32f10x_tim.c.obj
 .text.TIM_PrescalerConfig
                0x0000000000000000        0x6 CMakeFiles/Project.elf.dir/Lib/Src/stm32f10x_tim.c.obj
 .text.TIM_CounterModeConfig
                0x0000000000000000        0xe CMakeFiles/Project.elf.dir/Lib/Src/stm32f10x_tim.c.obj
 .text.TIM_SelectInputTrigger
                0x0000000000000000        0xe CMakeFiles/Project.elf.dir/Lib/Src/stm32f10x_tim.c.obj
 .text.TIM_ITRxExternalClockConfig
                0x0000000000000000       0x14 CMakeFiles/Project.elf.dir/Lib/Src/stm32f10x_tim.c.obj
 .text.TIM_TIxExternalClockConfig
                0x0000000000000000       0x2e CMakeFiles/Project.elf.dir/Lib/Src/stm32f10x_tim.c.obj
 .text.TIM_EncoderInterfaceConfig
                0x0000000000000000       0x46 CMakeFiles/Project.elf.dir/Lib/Src/stm32f10x_tim.c.obj
 .text.TIM_ForcedOC1Config
                0x0000000000000000        0xe CMakeFiles/Project.elf.dir/Lib/Src/stm32f10x_tim.c.obj
 .text.TIM_ForcedOC2Config
                0x0000000000000000       0x12 CMakeFiles/Project.elf.dir/Lib/Src/stm32f10x_tim.c.obj
 .text.TIM_ForcedOC3Config
                0x0000000000000000        0xe CMakeFiles/Project.elf.dir/Lib/Src/stm32f10x_tim.c.obj
 .text.TIM_ForcedOC4Config
                0x0000000000000000       0x12 CMakeFiles/Project.elf.dir/Lib/Src/stm32f10x_tim.c.obj
 .text.TIM_ARRPreloadConfig
                0x0000000000000000       0x1c CMakeFiles/Project.elf.dir/Lib/Src/stm32f10x_tim.c.obj
 .text.TIM_SelectCOM
                0x0000000000000000       0x1c CMakeFiles/Project.elf.dir/Lib/Src/stm32f10x_tim.c.obj
 .text.TIM_SelectCCDMA
                0x0000000000000000       0x1c CMakeFiles/Project.elf.dir/Lib/Src/stm32f10x_tim.c.obj
 .text.TIM_CCPreloadControl
                0x0000000000000000       0x1c CMakeFiles/Project.elf.dir/Lib/Src/stm32f10x_tim.c.obj
 .text.TIM_OC1PreloadConfig
                0x0000000000000000        0xe CMakeFiles/Project.elf.dir/Lib/Src/stm32f10x_tim.c.obj
 .text.TIM_OC2PreloadConfig
                0x0000000000000000       0x12 CMakeFiles/Project.elf.dir/Lib/Src/stm32f10x_tim.c.obj
 .text.TIM_OC3PreloadConfig
                0x0000000000000000        0xe CMakeFiles/Project.elf.dir/Lib/Src/stm32f10x_tim.c.obj
 .text.TIM_OC4PreloadConfig
                0x0000000000000000       0x12 CMakeFiles/Project.elf.dir/Lib/Src/stm32f10x_tim.c.obj
 .text.TIM_OC1FastConfig
                0x0000000000000000        0xe CMakeFiles/Project.elf.dir/Lib/Src/stm32f10x_tim.c.obj
 .text.TIM_OC2FastConfig
                0x0000000000000000       0x12 CMakeFiles/Project.elf.dir/Lib/Src/stm32f10x_tim.c.obj
 .text.TIM_OC3FastConfig
                0x0000000000000000        0xe CMakeFiles/Project.elf.dir/Lib/Src/stm32f10x_tim.c.obj
 .text.TIM_OC4FastConfig
                0x0000000000000000       0x12 CMakeFiles/Project.elf.dir/Lib/Src/stm32f10x_tim.c.obj
 .text.TIM_ClearOC1Ref
                0x0000000000000000        0xe CMakeFiles/Project.elf.dir/Lib/Src/stm32f10x_tim.c.obj
 .text.TIM_ClearOC2Ref
                0x0000000000000000       0x10 CMakeFiles/Project.elf.dir/Lib/Src/stm32f10x_tim.c.obj
 .text.TIM_ClearOC3Ref
                0x0000000000000000        0xe CMakeFiles/Project.elf.dir/Lib/Src/stm32f10x_tim.c.obj
 .text.TIM_ClearOC4Ref
                0x0000000000000000       0x10 CMakeFiles/Project.elf.dir/Lib/Src/stm32f10x_tim.c.obj
 .text.TIM_OC1PolarityConfig
                0x0000000000000000        0xe CMakeFiles/Project.elf.dir/Lib/Src/stm32f10x_tim.c.obj
 .text.TIM_OC1NPolarityConfig
                0x0000000000000000        0xe CMakeFiles/Project.elf.dir/Lib/Src/stm32f10x_tim.c.obj
 .text.TIM_OC2PolarityConfig
                0x0000000000000000       0x12 CMakeFiles/Project.elf.dir/Lib/Src/stm32f10x_tim.c.obj
 .text.TIM_OC2NPolarityConfig
                0x0000000000000000       0x12 CMakeFiles/Project.elf.dir/Lib/Src/stm32f10x_tim.c.obj
 .text.TIM_OC3PolarityConfig
                0x0000000000000000       0x12 CMakeFiles/Project.elf.dir/Lib/Src/stm32f10x_tim.c.obj
 .text.TIM_OC3NPolarityConfig
                0x0000000000000000       0x12 CMakeFiles/Project.elf.dir/Lib/Src/stm32f10x_tim.c.obj
 .text.TIM_OC4PolarityConfig
                0x0000000000000000       0x12 CMakeFiles/Project.elf.dir/Lib/Src/stm32f10x_tim.c.obj
 .text.TIM_CCxCmd
                0x0000000000000000       0x22 CMakeFiles/Project.elf.dir/Lib/Src/stm32f10x_tim.c.obj
 .text.TIM_CCxNCmd
                0x0000000000000000       0x22 CMakeFiles/Project.elf.dir/Lib/Src/stm32f10x_tim.c.obj
 .text.TIM_SelectOCxM
                0x0000000000000000       0x5e CMakeFiles/Project.elf.dir/Lib/Src/stm32f10x_tim.c.obj
 .text.TIM_UpdateDisableConfig
                0x0000000000000000       0x1c CMakeFiles/Project.elf.dir/Lib/Src/stm32f10x_tim.c.obj
 .text.TIM_UpdateRequestConfig
                0x0000000000000000       0x1c CMakeFiles/Project.elf.dir/Lib/Src/stm32f10x_tim.c.obj
 .text.TIM_SelectHallSensor
                0x0000000000000000       0x1c CMakeFiles/Project.elf.dir/Lib/Src/stm32f10x_tim.c.obj
 .text.TIM_SelectOnePulseMode
                0x0000000000000000       0x16 CMakeFiles/Project.elf.dir/Lib/Src/stm32f10x_tim.c.obj
 .text.TIM_SelectOutputTrigger
                0x0000000000000000       0x16 CMakeFiles/Project.elf.dir/Lib/Src/stm32f10x_tim.c.obj
 .text.TIM_SelectSlaveMode
                0x0000000000000000       0x16 CMakeFiles/Project.elf.dir/Lib/Src/stm32f10x_tim.c.obj
 .text.TIM_SelectMasterSlaveMode
                0x0000000000000000       0x16 CMakeFiles/Project.elf.dir/Lib/Src/stm32f10x_tim.c.obj
 .text.TIM_SetCounter
                0x0000000000000000        0x4 CMakeFiles/Project.elf.dir/Lib/Src/stm32f10x_tim.c.obj
 .text.TIM_SetAutoreload
                0x0000000000000000        0x4 CMakeFiles/Project.elf.dir/Lib/Src/stm32f10x_tim.c.obj
 .text.TIM_SetCompare1
                0x0000000000000000        0x4 CMakeFiles/Project.elf.dir/Lib/Src/stm32f10x_tim.c.obj
 .text.TIM_SetCompare2
                0x0000000000000000        0x4 CMakeFiles/Project.elf.dir/Lib/Src/stm32f10x_tim.c.obj
 .text.TIM_SetCompare3
                0x0000000000000000        0x4 CMakeFiles/Project.elf.dir/Lib/Src/stm32f10x_tim.c.obj
 .text.TIM_SetCompare4
                0x0000000000000000        0x6 CMakeFiles/Project.elf.dir/Lib/Src/stm32f10x_tim.c.obj
 .text.TIM_SetIC1Prescaler
                0x0000000000000000       0x16 CMakeFiles/Project.elf.dir/Lib/Src/stm32f10x_tim.c.obj
 .text.TIM_SetIC2Prescaler
                0x0000000000000000       0x1a CMakeFiles/Project.elf.dir/Lib/Src/stm32f10x_tim.c.obj
 .text.TIM_PWMIConfig
                0x0000000000000000       0x6c CMakeFiles/Project.elf.dir/Lib/Src/stm32f10x_tim.c.obj
 .text.TIM_SetIC3Prescaler
                0x0000000000000000       0x16 CMakeFiles/Project.elf.dir/Lib/Src/stm32f10x_tim.c.obj
 .text.TIM_SetIC4Prescaler
                0x0000000000000000       0x1a CMakeFiles/Project.elf.dir/Lib/Src/stm32f10x_tim.c.obj
 .text.TIM_ICInit
                0x0000000000000000       0x62 CMakeFiles/Project.elf.dir/Lib/Src/stm32f10x_tim.c.obj
 .text.TIM_SetClockDivision
                0x0000000000000000       0x16 CMakeFiles/Project.elf.dir/Lib/Src/stm32f10x_tim.c.obj
 .text.TIM_GetCapture1
                0x0000000000000000        0x6 CMakeFiles/Project.elf.dir/Lib/Src/stm32f10x_tim.c.obj
 .text.TIM_GetCapture2
                0x0000000000000000        0x6 CMakeFiles/Project.elf.dir/Lib/Src/stm32f10x_tim.c.obj
 .text.TIM_GetCapture3
                0x0000000000000000        0x6 CMakeFiles/Project.elf.dir/Lib/Src/stm32f10x_tim.c.obj
 .text.TIM_GetCapture4
                0x0000000000000000        0x8 CMakeFiles/Project.elf.dir/Lib/Src/stm32f10x_tim.c.obj
 .text.TIM_GetCounter
                0x0000000000000000        0x6 CMakeFiles/Project.elf.dir/Lib/Src/stm32f10x_tim.c.obj
 .text.TIM_GetPrescaler
                0x0000000000000000        0x6 CMakeFiles/Project.elf.dir/Lib/Src/stm32f10x_tim.c.obj
 .text.TIM_GetFlagStatus
                0x0000000000000000        0xe CMakeFiles/Project.elf.dir/Lib/Src/stm32f10x_tim.c.obj
 .text.TIM_ClearFlag
                0x0000000000000000        0x8 CMakeFiles/Project.elf.dir/Lib/Src/stm32f10x_tim.c.obj
 .text.TIM_GetITStatus
                0x0000000000000000       0x18 CMakeFiles/Project.elf.dir/Lib/Src/stm32f10x_tim.c.obj
 .text.TIM_ClearITPendingBit
                0x0000000000000000        0x8 CMakeFiles/Project.elf.dir/Lib/Src/stm32f10x_tim.c.obj
 .debug_info    0x0000000000000000     0x2507 CMakeFiles/Project.elf.dir/Lib/Src/stm32f10x_tim.c.obj
 .debug_abbrev  0x0000000000000000      0x206 CMakeFiles/Project.elf.dir/Lib/Src/stm32f10x_tim.c.obj
 .debug_loc     0x0000000000000000     0x1a55 CMakeFiles/Project.elf.dir/Lib/Src/stm32f10x_tim.c.obj
 .debug_aranges
                0x0000000000000000      0x2f0 CMakeFiles/Project.elf.dir/Lib/Src/stm32f10x_tim.c.obj
 .debug_ranges  0x0000000000000000      0x2e0 CMakeFiles/Project.elf.dir/Lib/Src/stm32f10x_tim.c.obj
 .debug_line    0x0000000000000000     0x19b2 CMakeFiles/Project.elf.dir/Lib/Src/stm32f10x_tim.c.obj
 .debug_str     0x0000000000000000      0xe4c CMakeFiles/Project.elf.dir/Lib/Src/stm32f10x_tim.c.obj
 .comment       0x0000000000000000       0x34 CMakeFiles/Project.elf.dir/Lib/Src/stm32f10x_tim.c.obj
 .debug_frame   0x0000000000000000      0x66c CMakeFiles/Project.elf.dir/Lib/Src/stm32f10x_tim.c.obj
 .ARM.attributes
                0x0000000000000000       0x2d CMakeFiles/Project.elf.dir/Lib/Src/stm32f10x_tim.c.obj
 .text          0x0000000000000000        0x0 CMakeFiles/Project.elf.dir/Lib/Src/stm32f10x_usart.c.obj
 .data          0x0000000000000000        0x0 CMakeFiles/Project.elf.dir/Lib/Src/stm32f10x_usart.c.obj
 .bss           0x0000000000000000        0x0 CMakeFiles/Project.elf.dir/Lib/Src/stm32f10x_usart.c.obj
 .text.USART_DeInit
                0x0000000000000000       0xa4 CMakeFiles/Project.elf.dir/Lib/Src/stm32f10x_usart.c.obj
 .text.USART_StructInit
                0x0000000000000000       0x16 CMakeFiles/Project.elf.dir/Lib/Src/stm32f10x_usart.c.obj
 .text.USART_ClockInit
                0x0000000000000000       0x26 CMakeFiles/Project.elf.dir/Lib/Src/stm32f10x_usart.c.obj
 .text.USART_ClockStructInit
                0x0000000000000000        0xc CMakeFiles/Project.elf.dir/Lib/Src/stm32f10x_usart.c.obj
 .text.USART_DMACmd
                0x0000000000000000       0x18 CMakeFiles/Project.elf.dir/Lib/Src/stm32f10x_usart.c.obj
 .text.USART_SetAddress
                0x0000000000000000       0x16 CMakeFiles/Project.elf.dir/Lib/Src/stm32f10x_usart.c.obj
 .text.USART_WakeUpConfig
                0x0000000000000000       0x16 CMakeFiles/Project.elf.dir/Lib/Src/stm32f10x_usart.c.obj
 .text.USART_ReceiverWakeUpCmd
                0x0000000000000000       0x1c CMakeFiles/Project.elf.dir/Lib/Src/stm32f10x_usart.c.obj
 .text.USART_LINBreakDetectLengthConfig
                0x0000000000000000       0x16 CMakeFiles/Project.elf.dir/Lib/Src/stm32f10x_usart.c.obj
 .text.USART_LINCmd
                0x0000000000000000       0x1c CMakeFiles/Project.elf.dir/Lib/Src/stm32f10x_usart.c.obj
 .text.USART_SendBreak
                0x0000000000000000        0xc CMakeFiles/Project.elf.dir/Lib/Src/stm32f10x_usart.c.obj
 .text.USART_SetGuardTime
                0x0000000000000000       0x12 CMakeFiles/Project.elf.dir/Lib/Src/stm32f10x_usart.c.obj
 .text.USART_SetPrescaler
                0x0000000000000000       0x12 CMakeFiles/Project.elf.dir/Lib/Src/stm32f10x_usart.c.obj
 .text.USART_SmartCardCmd
                0x0000000000000000       0x1c CMakeFiles/Project.elf.dir/Lib/Src/stm32f10x_usart.c.obj
 .text.USART_SmartCardNACKCmd
                0x0000000000000000       0x1c CMakeFiles/Project.elf.dir/Lib/Src/stm32f10x_usart.c.obj
 .text.USART_HalfDuplexCmd
                0x0000000000000000       0x1c CMakeFiles/Project.elf.dir/Lib/Src/stm32f10x_usart.c.obj
 .text.USART_OverSampling8Cmd
                0x0000000000000000       0x1c CMakeFiles/Project.elf.dir/Lib/Src/stm32f10x_usart.c.obj
 .text.USART_OneBitMethodCmd
                0x0000000000000000       0x1c CMakeFiles/Project.elf.dir/Lib/Src/stm32f10x_usart.c.obj
 .text.USART_IrDAConfig
                0x0000000000000000       0x16 CMakeFiles/Project.elf.dir/Lib/Src/stm32f10x_usart.c.obj
 .text.USART_IrDACmd
                0x0000000000000000       0x1c CMakeFiles/Project.elf.dir/Lib/Src/stm32f10x_usart.c.obj
 .text.USART_ClearFlag
                0x0000000000000000        0x8 CMakeFiles/Project.elf.dir/Lib/Src/stm32f10x_usart.c.obj
 .text          0x0000000000000000        0x0 CMakeFiles/Project.elf.dir/Lib/Src/stm32f10x_wwdg.c.obj
 .data          0x0000000000000000        0x0 CMakeFiles/Project.elf.dir/Lib/Src/stm32f10x_wwdg.c.obj
 .bss           0x0000000000000000        0x0 CMakeFiles/Project.elf.dir/Lib/Src/stm32f10x_wwdg.c.obj
 .text.WWDG_DeInit
                0x0000000000000000       0x18 CMakeFiles/Project.elf.dir/Lib/Src/stm32f10x_wwdg.c.obj
 .text.WWDG_SetPrescaler
                0x0000000000000000       0x14 CMakeFiles/Project.elf.dir/Lib/Src/stm32f10x_wwdg.c.obj
 .text.WWDG_SetWindowValue
                0x0000000000000000       0x28 CMakeFiles/Project.elf.dir/Lib/Src/stm32f10x_wwdg.c.obj
 .text.WWDG_EnableIT
                0x0000000000000000       0x10 CMakeFiles/Project.elf.dir/Lib/Src/stm32f10x_wwdg.c.obj
 .text.WWDG_SetCounter
                0x0000000000000000       0x10 CMakeFiles/Project.elf.dir/Lib/Src/stm32f10x_wwdg.c.obj
 .text.WWDG_Enable
                0x0000000000000000       0x10 CMakeFiles/Project.elf.dir/Lib/Src/stm32f10x_wwdg.c.obj
 .text.WWDG_GetFlagStatus
                0x0000000000000000        0xc CMakeFiles/Project.elf.dir/Lib/Src/stm32f10x_wwdg.c.obj
 .text.WWDG_ClearFlag
                0x0000000000000000        0xc CMakeFiles/Project.elf.dir/Lib/Src/stm32f10x_wwdg.c.obj
 .debug_info    0x0000000000000000      0x284 CMakeFiles/Project.elf.dir/Lib/Src/stm32f10x_wwdg.c.obj
 .debug_abbrev  0x0000000000000000      0x167 CMakeFiles/Project.elf.dir/Lib/Src/stm32f10x_wwdg.c.obj
 .debug_loc     0x0000000000000000       0x92 CMakeFiles/Project.elf.dir/Lib/Src/stm32f10x_wwdg.c.obj
 .debug_aranges
                0x0000000000000000       0x58 CMakeFiles/Project.elf.dir/Lib/Src/stm32f10x_wwdg.c.obj
 .debug_ranges  0x0000000000000000       0x48 CMakeFiles/Project.elf.dir/Lib/Src/stm32f10x_wwdg.c.obj
 .debug_line    0x0000000000000000      0x217 CMakeFiles/Project.elf.dir/Lib/Src/stm32f10x_wwdg.c.obj
 .debug_str     0x0000000000000000      0x2b5 CMakeFiles/Project.elf.dir/Lib/Src/stm32f10x_wwdg.c.obj
 .comment       0x0000000000000000       0x34 CMakeFiles/Project.elf.dir/Lib/Src/stm32f10x_wwdg.c.obj
 .debug_frame   0x0000000000000000       0xa0 CMakeFiles/Project.elf.dir/Lib/Src/stm32f10x_wwdg.c.obj
 .ARM.attributes
                0x0000000000000000       0x2d CMakeFiles/Project.elf.dir/Lib/Src/stm32f10x_wwdg.c.obj
 .text          0x0000000000000000       0x14 CMakeFiles/Project.elf.dir/Project/Code-Cmake/startup_stm32f10x_md.s.obj
 .data          0x0000000000000000        0x0 CMakeFiles/Project.elf.dir/Project/Code-Cmake/startup_stm32f10x_md.s.obj
 .bss           0x0000000000000000        0x0 CMakeFiles/Project.elf.dir/Project/Code-Cmake/startup_stm32f10x_md.s.obj
 .text          0x0000000000000000        0x0 CMakeFiles/Project.elf.dir/Start/Src/core_cm3.c.obj
 .data          0x0000000000000000        0x0 CMakeFiles/Project.elf.dir/Start/Src/core_cm3.c.obj
 .bss           0x0000000000000000        0x0 CMakeFiles/Project.elf.dir/Start/Src/core_cm3.c.obj
 .text.__get_PSP
                0x0000000000000000        0x6 CMakeFiles/Project.elf.dir/Start/Src/core_cm3.c.obj
 .text.__set_PSP
                0x0000000000000000        0x6 CMakeFiles/Project.elf.dir/Start/Src/core_cm3.c.obj
 .text.__get_MSP
                0x0000000000000000        0x6 CMakeFiles/Project.elf.dir/Start/Src/core_cm3.c.obj
 .text.__set_MSP
                0x0000000000000000        0x6 CMakeFiles/Project.elf.dir/Start/Src/core_cm3.c.obj
 .text.__get_BASEPRI
                0x0000000000000000        0x6 CMakeFiles/Project.elf.dir/Start/Src/core_cm3.c.obj
 .text.__set_BASEPRI
                0x0000000000000000        0x6 CMakeFiles/Project.elf.dir/Start/Src/core_cm3.c.obj
 .text.__get_PRIMASK
                0x0000000000000000        0x6 CMakeFiles/Project.elf.dir/Start/Src/core_cm3.c.obj
 .text.__set_PRIMASK
                0x0000000000000000        0x6 CMakeFiles/Project.elf.dir/Start/Src/core_cm3.c.obj
 .text.__get_FAULTMASK
                0x0000000000000000        0x6 CMakeFiles/Project.elf.dir/Start/Src/core_cm3.c.obj
 .text.__set_FAULTMASK
                0x0000000000000000        0x6 CMakeFiles/Project.elf.dir/Start/Src/core_cm3.c.obj
 .text.__get_CONTROL
                0x0000000000000000        0x6 CMakeFiles/Project.elf.dir/Start/Src/core_cm3.c.obj
 .text.__set_CONTROL
                0x0000000000000000        0x6 CMakeFiles/Project.elf.dir/Start/Src/core_cm3.c.obj
 .text.__REV    0x0000000000000000        0x4 CMakeFiles/Project.elf.dir/Start/Src/core_cm3.c.obj
 .text.__REV16  0x0000000000000000        0x4 CMakeFiles/Project.elf.dir/Start/Src/core_cm3.c.obj
 .text.__REVSH  0x0000000000000000        0x4 CMakeFiles/Project.elf.dir/Start/Src/core_cm3.c.obj
 .text.__RBIT   0x0000000000000000        0x6 CMakeFiles/Project.elf.dir/Start/Src/core_cm3.c.obj
 .text.__LDREXB
                0x0000000000000000        0x8 CMakeFiles/Project.elf.dir/Start/Src/core_cm3.c.obj
 .text.__LDREXH
                0x0000000000000000        0x8 CMakeFiles/Project.elf.dir/Start/Src/core_cm3.c.obj
 .text.__LDREXW
                0x0000000000000000        0x6 CMakeFiles/Project.elf.dir/Start/Src/core_cm3.c.obj
 .text.__STREXB
                0x0000000000000000        0x8 CMakeFiles/Project.elf.dir/Start/Src/core_cm3.c.obj
 .text.__STREXH
                0x0000000000000000        0x8 CMakeFiles/Project.elf.dir/Start/Src/core_cm3.c.obj
 .text.__STREXW
                0x0000000000000000        0x6 CMakeFiles/Project.elf.dir/Start/Src/core_cm3.c.obj
 .debug_info    0x0000000000000000      0x5ce CMakeFiles/Project.elf.dir/Start/Src/core_cm3.c.obj
 .debug_abbrev  0x0000000000000000       0xd1 CMakeFiles/Project.elf.dir/Start/Src/core_cm3.c.obj
 .debug_loc     0x0000000000000000      0x3a6 CMakeFiles/Project.elf.dir/Start/Src/core_cm3.c.obj
 .debug_aranges
                0x0000000000000000       0xc8 CMakeFiles/Project.elf.dir/Start/Src/core_cm3.c.obj
 .debug_ranges  0x0000000000000000       0xb8 CMakeFiles/Project.elf.dir/Start/Src/core_cm3.c.obj
 .debug_line    0x0000000000000000      0x2d0 CMakeFiles/Project.elf.dir/Start/Src/core_cm3.c.obj
 .debug_str     0x0000000000000000      0x336 CMakeFiles/Project.elf.dir/Start/Src/core_cm3.c.obj
 .comment       0x0000000000000000       0x34 CMakeFiles/Project.elf.dir/Start/Src/core_cm3.c.obj
 .debug_frame   0x0000000000000000      0x170 CMakeFiles/Project.elf.dir/Start/Src/core_cm3.c.obj
 .ARM.attributes
                0x0000000000000000       0x2d CMakeFiles/Project.elf.dir/Start/Src/core_cm3.c.obj
 .text          0x0000000000000000        0x0 CMakeFiles/Project.elf.dir/Start/Src/stm32f10x_it.c.obj
 .data          0x0000000000000000        0x0 CMakeFiles/Project.elf.dir/Start/Src/stm32f10x_it.c.obj
 .bss           0x0000000000000000        0x0 CMakeFiles/Project.elf.dir/Start/Src/stm32f10x_it.c.obj
 .text          0x0000000000000000        0x0 CMakeFiles/Project.elf.dir/Start/Src/system_stm32f10x.c.obj
 .data          0x0000000000000000        0x0 CMakeFiles/Project.elf.dir/Start/Src/system_stm32f10x.c.obj
 .bss           0x0000000000000000        0x0 CMakeFiles/Project.elf.dir/Start/Src/system_stm32f10x.c.obj
 .text.SystemCoreClockUpdate
                0x0000000000000000       0x94 CMakeFiles/Project.elf.dir/Start/Src/system_stm32f10x.c.obj
 .data.AHBPrescTable
                0x0000000000000000       0x10 CMakeFiles/Project.elf.dir/Start/Src/system_stm32f10x.c.obj
 .data.SystemCoreClock
                0x0000000000000000        0x4 CMakeFiles/Project.elf.dir/Start/Src/system_stm32f10x.c.obj
 .text          0x0000000000000000        0x0 CMakeFiles/Project.elf.dir/System/Src/Delay.c.obj
 .data          0x0000000000000000        0x0 CMakeFiles/Project.elf.dir/System/Src/Delay.c.obj
 .bss           0x0000000000000000        0x0 CMakeFiles/Project.elf.dir/System/Src/Delay.c.obj
 .text          0x0000000000000000        0x0 CMakeFiles/Project.elf.dir/User/main.c.obj
 .data          0x0000000000000000        0x0 CMakeFiles/Project.elf.dir/User/main.c.obj
 .bss           0x0000000000000000        0x0 CMakeFiles/Project.elf.dir/User/main.c.obj
 .text          0x0000000000000000      0x254 /usr/lib/gcc/arm-none-eabi/10.3.1/thumb/v7-m/nofp/libgcc.a(_arm_muldf3.o)
 .data          0x0000000000000000        0x0 /usr/lib/gcc/arm-none-eabi/10.3.1/thumb/v7-m/nofp/libgcc.a(_arm_muldf3.o)
 .bss           0x0000000000000000        0x0 /usr/lib/gcc/arm-none-eabi/10.3.1/thumb/v7-m/nofp/libgcc.a(_arm_muldf3.o)
 .debug_line    0x0000000000000000      0x10c /usr/lib/gcc/arm-none-eabi/10.3.1/thumb/v7-m/nofp/libgcc.a(_arm_muldf3.o)
 .debug_info    0x0000000000000000       0x26 /usr/lib/gcc/arm-none-eabi/10.3.1/thumb/v7-m/nofp/libgcc.a(_arm_muldf3.o)
 .debug_abbrev  0x0000000000000000       0x14 /usr/lib/gcc/arm-none-eabi/10.3.1/thumb/v7-m/nofp/libgcc.a(_arm_muldf3.o)
 .debug_aranges
                0x0000000000000000       0x20 /usr/lib/gcc/arm-none-eabi/10.3.1/thumb/v7-m/nofp/libgcc.a(_arm_muldf3.o)
 .debug_str     0x0000000000000000       0xa7 /usr/lib/gcc/arm-none-eabi/10.3.1/thumb/v7-m/nofp/libgcc.a(_arm_muldf3.o)
 .debug_frame   0x0000000000000000       0x30 /usr/lib/gcc/arm-none-eabi/10.3.1/thumb/v7-m/nofp/libgcc.a(_arm_muldf3.o)
 .ARM.attributes
                0x0000000000000000       0x1d /usr/lib/gcc/arm-none-eabi/10.3.1/thumb/v7-m/nofp/libgcc.a(_arm_muldf3.o)
 .data          0x0000000000000000        0x0 /usr/lib/gcc/arm-none-eabi/10.3.1/thumb/v7-m/nofp/libgcc.a(_arm_addsubdf3.o)
 .bss           0x0000000000000000        0x0 /usr/lib/gcc/arm-none-eabi/10.3.1/thumb/v7-m/nofp/libgcc.a(_arm_addsubdf3.o)
 .data          0x0000000000000000        0x0 /usr/lib/gcc/arm-none-eabi/10.3.1/thumb/v7-m/nofp/libgcc.a(_arm_muldivdf3.o)
 .bss           0x0000000000000000        0x0 /usr/lib/gcc/arm-none-eabi/10.3.1/thumb/v7-m/nofp/libgcc.a(_arm_muldivdf3.o)
 .data          0x0000000000000000        0x0 /usr/lib/gcc/arm-none-eabi/10.3.1/thumb/v7-m/nofp/libgcc.a(_arm_truncdfsf2.o)
 .bss           0x0000000000000000        0x0 /usr/lib/gcc/arm-none-eabi/10.3.1/thumb/v7-m/nofp/libgcc.a(_arm_truncdfsf2.o)
 .data          0x0000000000000000        0x0 /usr/lib/gcc/arm-none-eabi/10.3.1/thumb/v7-m/nofp/libgcc.a(_arm_addsubsf3.o)
 .bss           0x0000000000000000        0x0 /usr/lib/gcc/arm-none-eabi/10.3.1/thumb/v7-m/nofp/libgcc.a(_arm_addsubsf3.o)
 .text          0x0000000000000000        0xc /usr/lib/gcc/arm-none-eabi/10.3.1/../../../arm-none-eabi/lib/thumb/v7-m/nofp/libc_nano.a(lib_a-atexit.o)
 .data          0x0000000000000000        0x0 /usr/lib/gcc/arm-none-eabi/10.3.1/../../../arm-none-eabi/lib/thumb/v7-m/nofp/libc_nano.a(lib_a-atexit.o)
 .bss           0x0000000000000000        0x0 /usr/lib/gcc/arm-none-eabi/10.3.1/../../../arm-none-eabi/lib/thumb/v7-m/nofp/libc_nano.a(lib_a-atexit.o)
 .debug_info    0x0000000000000000      0x100 /usr/lib/gcc/arm-none-eabi/10.3.1/../../../arm-none-eabi/lib/thumb/v7-m/nofp/libc_nano.a(lib_a-atexit.o)
 .debug_abbrev  0x0000000000000000       0xb7 /usr/lib/gcc/arm-none-eabi/10.3.1/../../../arm-none-eabi/lib/thumb/v7-m/nofp/libc_nano.a(lib_a-atexit.o)
 .debug_loc     0x0000000000000000       0x32 /usr/lib/gcc/arm-none-eabi/10.3.1/../../../arm-none-eabi/lib/thumb/v7-m/nofp/libc_nano.a(lib_a-atexit.o)
 .debug_aranges
                0x0000000000000000       0x20 /usr/lib/gcc/arm-none-eabi/10.3.1/../../../arm-none-eabi/lib/thumb/v7-m/nofp/libc_nano.a(lib_a-atexit.o)
 .debug_line    0x0000000000000000       0xc0 /usr/lib/gcc/arm-none-eabi/10.3.1/../../../arm-none-eabi/lib/thumb/v7-m/nofp/libc_nano.a(lib_a-atexit.o)
 .debug_str     0x0000000000000000      0x1e1 /usr/lib/gcc/arm-none-eabi/10.3.1/../../../arm-none-eabi/lib/thumb/v7-m/nofp/libc_nano.a(lib_a-atexit.o)
 .comment       0x0000000000000000       0x34 /usr/lib/gcc/arm-none-eabi/10.3.1/../../../arm-none-eabi/lib/thumb/v7-m/nofp/libc_nano.a(lib_a-atexit.o)
 .debug_frame   0x0000000000000000       0x20 /usr/lib/gcc/arm-none-eabi/10.3.1/../../../arm-none-eabi/lib/thumb/v7-m/nofp/libc_nano.a(lib_a-atexit.o)
 .ARM.attributes
                0x0000000000000000       0x2d /usr/lib/gcc/arm-none-eabi/10.3.1/../../../arm-none-eabi/lib/thumb/v7-m/nofp/libc_nano.a(lib_a-atexit.o)
 .text          0x0000000000000000       0x28 /usr/lib/gcc/arm-none-eabi/10.3.1/../../../arm-none-eabi/lib/thumb/v7-m/nofp/libc_nano.a(lib_a-exit.o)
 .data          0x0000000000000000        0x0 /usr/lib/gcc/arm-none-eabi/10.3.1/../../../arm-none-eabi/lib/thumb/v7-m/nofp/libc_nano.a(lib_a-exit.o)
 .bss           0x0000000000000000        0x0 /usr/lib/gcc/arm-none-eabi/10.3.1/../../../arm-none-eabi/lib/thumb/v7-m/nofp/libc_nano.a(lib_a-exit.o)
 .debug_info    0x0000000000000000      0x81a /usr/lib/gcc/arm-none-eabi/10.3.1/../../../arm-none-eabi/lib/thumb/v7-m/nofp/libc_nano.a(lib_a-exit.o)
 .debug_abbrev  0x0000000000000000      0x1ba /usr/lib/gcc/arm-none-eabi/10.3.1/../../../arm-none-eabi/lib/thumb/v7-m/nofp/libc_nano.a(lib_a-exit.o)
 .debug_loc     0x0000000000000000       0x22 /usr/lib/gcc/arm-none-eabi/10.3.1/../../../arm-none-eabi/lib/thumb/v7-m/nofp/libc_nano.a(lib_a-exit.o)
 .debug_aranges
                0x0000000000000000       0x20 /usr/lib/gcc/arm-none-eabi/10.3.1/../../../arm-none-eabi/lib/thumb/v7-m/nofp/libc_nano.a(lib_a-exit.o)
 .debug_line    0x0000000000000000      0x16d /usr/lib/gcc/arm-none-eabi/10.3.1/../../../arm-none-eabi/lib/thumb/v7-m/nofp/libc_nano.a(lib_a-exit.o)
 .debug_str     0x0000000000000000      0x520 /usr/lib/gcc/arm-none-eabi/10.3.1/../../../arm-none-eabi/lib/thumb/v7-m/nofp/libc_nano.a(lib_a-exit.o)
 .comment       0x0000000000000000       0x34 /usr/lib/gcc/arm-none-eabi/10.3.1/../../../arm-none-eabi/lib/thumb/v7-m/nofp/libc_nano.a(lib_a-exit.o)
 .debug_frame   0x0000000000000000       0x28 /usr/lib/gcc/arm-none-eabi/10.3.1/../../../arm-none-eabi/lib/thumb/v7-m/nofp/libc_nano.a(lib_a-exit.o)
 .ARM.attributes
                0x0000000000000000       0x2d /usr/lib/gcc/arm-none-eabi/10.3.1/../../../arm-none-eabi/lib/thumb/v7-m/nofp/libc_nano.a(lib_a-exit.o)
 .text          0x0000000000000000       0x2c /usr/lib/gcc/arm-none-eabi/10.3.1/../../../arm-none-eabi/lib/thumb/v7-m/nofp/libc_nano.a(lib_a-fini.o)
 .data          0x0000000000000000        0x0 /usr/lib/gcc/arm-none-eabi/10.3.1/../../../arm-none-eabi/lib/thumb/v7-m/nofp/libc_nano.a(lib_a-fini.o)
 .bss           0x0000000000000000        0x0 /usr/lib/gcc/arm-none-eabi/10.3.1/../../../arm-none-eabi/lib/thumb/v7-m/nofp/libc_nano.a(lib_a-fini.o)
 .debug_info    0x0000000000000000      0x102 /usr/lib/gcc/arm-none-eabi/10.3.1/../../../arm-none-eabi/lib/thumb/v7-m/nofp/libc_nano.a(lib_a-fini.o)
 .debug_abbrev  0x0000000000000000       0xcf /usr/lib/gcc/arm-none-eabi/10.3.1/../../../arm-none-eabi/lib/thumb/v7-m/nofp/libc_nano.a(lib_a-fini.o)
 .debug_loc     0x0000000000000000       0x68 /usr/lib/gcc/arm-none-eabi/10.3.1/../../../arm-none-eabi/lib/thumb/v7-m/nofp/libc_nano.a(lib_a-fini.o)
 .debug_aranges
                0x0000000000000000       0x20 /usr/lib/gcc/arm-none-eabi/10.3.1/../../../arm-none-eabi/lib/thumb/v7-m/nofp/libc_nano.a(lib_a-fini.o)
 .debug_line    0x0000000000000000       0xed /usr/lib/gcc/arm-none-eabi/10.3.1/../../../arm-none-eabi/lib/thumb/v7-m/nofp/libc_nano.a(lib_a-fini.o)
 .debug_str     0x0000000000000000      0x1d9 /usr/lib/gcc/arm-none-eabi/10.3.1/../../../arm-none-eabi/lib/thumb/v7-m/nofp/libc_nano.a(lib_a-fini.o)
 .comment       0x0000000000000000       0x34 /usr/lib/gcc/arm-none-eabi/10.3.1/../../../arm-none-eabi/lib/thumb/v7-m/nofp/libc_nano.a(lib_a-fini.o)
 .debug_frame   0x0000000000000000       0x34 /usr/lib/gcc/arm-none-eabi/10.3.1/../../../arm-none-eabi/lib/thumb/v7-m/nofp/libc_nano.a(lib_a-fini.o)
 .ARM.attributes
                0x0000000000000000       0x2d /usr/lib/gcc/arm-none-eabi/10.3.1/../../../arm-none-eabi/lib/thumb/v7-m/nofp/libc_nano.a(lib_a-fini.o)
 .text          0x0000000000000000        0x0 /usr/lib/gcc/arm-none-eabi/10.3.1/../../../arm-none-eabi/lib/thumb/v7-m/nofp/libc_nano.a(lib_a-impure.o)
 .bss           0x0000000000000000        0x0 /usr/lib/gcc/arm-none-eabi/10.3.1/../../../arm-none-eabi/lib/thumb/v7-m/nofp/libc_nano.a(lib_a-impure.o)
 .text          0x0000000000000000       0x48 /usr/lib/gcc/arm-none-eabi/10.3.1/../../../arm-none-eabi/lib/thumb/v7-m/nofp/libc_nano.a(lib_a-init.o)
 .data          0x0000000000000000        0x0 /usr/lib/gcc/arm-none-eabi/10.3.1/../../../arm-none-eabi/lib/thumb/v7-m/nofp/libc_nano.a(lib_a-init.o)
 .bss           0x0000000000000000        0x0 /usr/lib/gcc/arm-none-eabi/10.3.1/../../../arm-none-eabi/lib/thumb/v7-m/nofp/libc_nano.a(lib_a-init.o)
 .debug_info    0x0000000000000000      0x11a /usr/lib/gcc/arm-none-eabi/10.3.1/../../../arm-none-eabi/lib/thumb/v7-m/nofp/libc_nano.a(lib_a-init.o)
 .debug_abbrev  0x0000000000000000       0xcc /usr/lib/gcc/arm-none-eabi/10.3.1/../../../arm-none-eabi/lib/thumb/v7-m/nofp/libc_nano.a(lib_a-init.o)
 .debug_loc     0x0000000000000000       0xba /usr/lib/gcc/arm-none-eabi/10.3.1/../../../arm-none-eabi/lib/thumb/v7-m/nofp/libc_nano.a(lib_a-init.o)
 .debug_aranges
                0x0000000000000000       0x20 /usr/lib/gcc/arm-none-eabi/10.3.1/../../../arm-none-eabi/lib/thumb/v7-m/nofp/libc_nano.a(lib_a-init.o)
 .debug_line    0x0000000000000000      0x13f /usr/lib/gcc/arm-none-eabi/10.3.1/../../../arm-none-eabi/lib/thumb/v7-m/nofp/libc_nano.a(lib_a-init.o)
 .debug_str     0x0000000000000000      0x203 /usr/lib/gcc/arm-none-eabi/10.3.1/../../../arm-none-eabi/lib/thumb/v7-m/nofp/libc_nano.a(lib_a-init.o)
 .comment       0x0000000000000000       0x34 /usr/lib/gcc/arm-none-eabi/10.3.1/../../../arm-none-eabi/lib/thumb/v7-m/nofp/libc_nano.a(lib_a-init.o)
 .debug_frame   0x0000000000000000       0x2c /usr/lib/gcc/arm-none-eabi/10.3.1/../../../arm-none-eabi/lib/thumb/v7-m/nofp/libc_nano.a(lib_a-init.o)
 .ARM.attributes
                0x0000000000000000       0x2d /usr/lib/gcc/arm-none-eabi/10.3.1/../../../arm-none-eabi/lib/thumb/v7-m/nofp/libc_nano.a(lib_a-init.o)
 .data          0x0000000000000000        0x0 /usr/lib/gcc/arm-none-eabi/10.3.1/../../../arm-none-eabi/lib/thumb/v7-m/nofp/libc_nano.a(lib_a-memset.o)
 .bss           0x0000000000000000        0x0 /usr/lib/gcc/arm-none-eabi/10.3.1/../../../arm-none-eabi/lib/thumb/v7-m/nofp/libc_nano.a(lib_a-memset.o)
 .data          0x0000000000000000        0x0 /usr/lib/gcc/arm-none-eabi/10.3.1/../../../arm-none-eabi/lib/thumb/v7-m/nofp/libc_nano.a(lib_a-nano-vfprintf_float.o)
 .bss           0x0000000000000000        0x0 /usr/lib/gcc/arm-none-eabi/10.3.1/../../../arm-none-eabi/lib/thumb/v7-m/nofp/libc_nano.a(lib_a-nano-vfprintf_float.o)
 .data          0x0000000000000000        0x0 /usr/lib/gcc/arm-none-eabi/10.3.1/../../../arm-none-eabi/lib/thumb/v7-m/nofp/libc_nano.a(lib_a-nano-vfprintf_i.o)
 .bss           0x0000000000000000        0x0 /usr/lib/gcc/arm-none-eabi/10.3.1/../../../arm-none-eabi/lib/thumb/v7-m/nofp/libc_nano.a(lib_a-nano-vfprintf_i.o)
 .data          0x0000000000000000        0x0 /usr/lib/gcc/arm-none-eabi/10.3.1/../../../arm-none-eabi/lib/thumb/v7-m/nofp/libc_nano.a(lib_a-printf.o)
 .bss           0x0000000000000000        0x0 /usr/lib/gcc/arm-none-eabi/10.3.1/../../../arm-none-eabi/lib/thumb/v7-m/nofp/libc_nano.a(lib_a-printf.o)
 .data          0x0000000000000000        0x0 /usr/lib/gcc/arm-none-eabi/10.3.1/../../../arm-none-eabi/lib/thumb/v7-m/nofp/libc_nano.a(lib_a-puts.o)
 .bss           0x0000000000000000        0x0 /usr/lib/gcc/arm-none-eabi/10.3.1/../../../arm-none-eabi/lib/thumb/v7-m/nofp/libc_nano.a(lib_a-puts.o)
 .data          0x0000000000000000        0x0 /usr/lib/gcc/arm-none-eabi/10.3.1/../../../arm-none-eabi/lib/thumb/v7-m/nofp/libc_nano.a(lib_a-sprintf.o)
 .bss           0x0000000000000000        0x0 /usr/lib/gcc/arm-none-eabi/10.3.1/../../../arm-none-eabi/lib/thumb/v7-m/nofp/libc_nano.a(lib_a-sprintf.o)
 .data          0x0000000000000000        0x0 /usr/lib/gcc/arm-none-eabi/10.3.1/../../../arm-none-eabi/lib/thumb/v7-m/nofp/libc_nano.a(lib_a-strcpy.o)
 .bss           0x0000000000000000        0x0 /usr/lib/gcc/arm-none-eabi/10.3.1/../../../arm-none-eabi/lib/thumb/v7-m/nofp/libc_nano.a(lib_a-strcpy.o)
 .data          0x0000000000000000        0x0 /usr/lib/gcc/arm-none-eabi/10.3.1/../../../arm-none-eabi/lib/thumb/v7-m/nofp/libc_nano.a(lib_a-strlen-stub.o)
 .bss           0x0000000000000000        0x0 /usr/lib/gcc/arm-none-eabi/10.3.1/../../../arm-none-eabi/lib/thumb/v7-m/nofp/libc_nano.a(lib_a-strlen-stub.o)
 .data          0x0000000000000000        0x0 /usr/lib/gcc/arm-none-eabi/10.3.1/../../../arm-none-eabi/lib/thumb/v7-m/nofp/libc_nano.a(lib_a-strstr.o)
 .bss           0x0000000000000000        0x0 /usr/lib/gcc/arm-none-eabi/10.3.1/../../../arm-none-eabi/lib/thumb/v7-m/nofp/libc_nano.a(lib_a-strstr.o)
 .text          0x0000000000000000       0x64 /usr/lib/gcc/arm-none-eabi/10.3.1/../../../arm-none-eabi/lib/thumb/v7-m/nofp/libc_nano.a(lib_a-vsprintf.o)
 .data          0x0000000000000000        0x0 /usr/lib/gcc/arm-none-eabi/10.3.1/../../../arm-none-eabi/lib/thumb/v7-m/nofp/libc_nano.a(lib_a-vsprintf.o)
 .bss           0x0000000000000000        0x0 /usr/lib/gcc/arm-none-eabi/10.3.1/../../../arm-none-eabi/lib/thumb/v7-m/nofp/libc_nano.a(lib_a-vsprintf.o)
 .debug_info    0x0000000000000000      0x97e /usr/lib/gcc/arm-none-eabi/10.3.1/../../../arm-none-eabi/lib/thumb/v7-m/nofp/libc_nano.a(lib_a-vsprintf.o)
 .debug_abbrev  0x0000000000000000      0x244 /usr/lib/gcc/arm-none-eabi/10.3.1/../../../arm-none-eabi/lib/thumb/v7-m/nofp/libc_nano.a(lib_a-vsprintf.o)
 .debug_loc     0x0000000000000000      0x191 /usr/lib/gcc/arm-none-eabi/10.3.1/../../../arm-none-eabi/lib/thumb/v7-m/nofp/libc_nano.a(lib_a-vsprintf.o)
 .debug_aranges
                0x0000000000000000       0x20 /usr/lib/gcc/arm-none-eabi/10.3.1/../../../arm-none-eabi/lib/thumb/v7-m/nofp/libc_nano.a(lib_a-vsprintf.o)
 .debug_ranges  0x0000000000000000       0x38 /usr/lib/gcc/arm-none-eabi/10.3.1/../../../arm-none-eabi/lib/thumb/v7-m/nofp/libc_nano.a(lib_a-vsprintf.o)
 .debug_line    0x0000000000000000      0x218 /usr/lib/gcc/arm-none-eabi/10.3.1/../../../arm-none-eabi/lib/thumb/v7-m/nofp/libc_nano.a(lib_a-vsprintf.o)
 .debug_str     0x0000000000000000      0x547 /usr/lib/gcc/arm-none-eabi/10.3.1/../../../arm-none-eabi/lib/thumb/v7-m/nofp/libc_nano.a(lib_a-vsprintf.o)
 .comment       0x0000000000000000       0x34 /usr/lib/gcc/arm-none-eabi/10.3.1/../../../arm-none-eabi/lib/thumb/v7-m/nofp/libc_nano.a(lib_a-vsprintf.o)
 .debug_frame   0x0000000000000000       0x50 /usr/lib/gcc/arm-none-eabi/10.3.1/../../../arm-none-eabi/lib/thumb/v7-m/nofp/libc_nano.a(lib_a-vsprintf.o)
 .ARM.attributes
                0x0000000000000000       0x2d /usr/lib/gcc/arm-none-eabi/10.3.1/../../../arm-none-eabi/lib/thumb/v7-m/nofp/libc_nano.a(lib_a-vsprintf.o)
 .data          0x0000000000000000        0x0 /usr/lib/gcc/arm-none-eabi/10.3.1/../../../arm-none-eabi/lib/thumb/v7-m/nofp/libc_nano.a(lib_a-wbuf.o)
 .bss           0x0000000000000000        0x0 /usr/lib/gcc/arm-none-eabi/10.3.1/../../../arm-none-eabi/lib/thumb/v7-m/nofp/libc_nano.a(lib_a-wbuf.o)
 .data          0x0000000000000000        0x0 /usr/lib/gcc/arm-none-eabi/10.3.1/../../../arm-none-eabi/lib/thumb/v7-m/nofp/libc_nano.a(lib_a-wsetup.o)
 .bss           0x0000000000000000        0x0 /usr/lib/gcc/arm-none-eabi/10.3.1/../../../arm-none-eabi/lib/thumb/v7-m/nofp/libc_nano.a(lib_a-wsetup.o)
 .text          0x0000000000000000       0xac /usr/lib/gcc/arm-none-eabi/10.3.1/../../../arm-none-eabi/lib/thumb/v7-m/nofp/libc_nano.a(lib_a-__atexit.o)
 .data          0x0000000000000000        0x4 /usr/lib/gcc/arm-none-eabi/10.3.1/../../../arm-none-eabi/lib/thumb/v7-m/nofp/libc_nano.a(lib_a-__atexit.o)
 .bss           0x0000000000000000       0x8c /usr/lib/gcc/arm-none-eabi/10.3.1/../../../arm-none-eabi/lib/thumb/v7-m/nofp/libc_nano.a(lib_a-__atexit.o)
 .debug_info    0x0000000000000000      0x269 /usr/lib/gcc/arm-none-eabi/10.3.1/../../../arm-none-eabi/lib/thumb/v7-m/nofp/libc_nano.a(lib_a-__atexit.o)
 .debug_abbrev  0x0000000000000000      0x1bd /usr/lib/gcc/arm-none-eabi/10.3.1/../../../arm-none-eabi/lib/thumb/v7-m/nofp/libc_nano.a(lib_a-__atexit.o)
 .debug_loc     0x0000000000000000      0x1c4 /usr/lib/gcc/arm-none-eabi/10.3.1/../../../arm-none-eabi/lib/thumb/v7-m/nofp/libc_nano.a(lib_a-__atexit.o)
 .debug_aranges
                0x0000000000000000       0x20 /usr/lib/gcc/arm-none-eabi/10.3.1/../../../arm-none-eabi/lib/thumb/v7-m/nofp/libc_nano.a(lib_a-__atexit.o)
 .debug_line    0x0000000000000000      0x1fc /usr/lib/gcc/arm-none-eabi/10.3.1/../../../arm-none-eabi/lib/thumb/v7-m/nofp/libc_nano.a(lib_a-__atexit.o)
 .debug_str     0x0000000000000000      0x28f /usr/lib/gcc/arm-none-eabi/10.3.1/../../../arm-none-eabi/lib/thumb/v7-m/nofp/libc_nano.a(lib_a-__atexit.o)
 .comment       0x0000000000000000       0x34 /usr/lib/gcc/arm-none-eabi/10.3.1/../../../arm-none-eabi/lib/thumb/v7-m/nofp/libc_nano.a(lib_a-__atexit.o)
 .debug_frame   0x0000000000000000       0x38 /usr/lib/gcc/arm-none-eabi/10.3.1/../../../arm-none-eabi/lib/thumb/v7-m/nofp/libc_nano.a(lib_a-__atexit.o)
 .ARM.attributes
                0x0000000000000000       0x2d /usr/lib/gcc/arm-none-eabi/10.3.1/../../../arm-none-eabi/lib/thumb/v7-m/nofp/libc_nano.a(lib_a-__atexit.o)
 .text          0x0000000000000000       0xc0 /usr/lib/gcc/arm-none-eabi/10.3.1/../../../arm-none-eabi/lib/thumb/v7-m/nofp/libc_nano.a(lib_a-__call_atexit.o)
 .data          0x0000000000000000        0x0 /usr/lib/gcc/arm-none-eabi/10.3.1/../../../arm-none-eabi/lib/thumb/v7-m/nofp/libc_nano.a(lib_a-__call_atexit.o)
 .bss           0x0000000000000000        0x4 /usr/lib/gcc/arm-none-eabi/10.3.1/../../../arm-none-eabi/lib/thumb/v7-m/nofp/libc_nano.a(lib_a-__call_atexit.o)
 .debug_info    0x0000000000000000      0x249 /usr/lib/gcc/arm-none-eabi/10.3.1/../../../arm-none-eabi/lib/thumb/v7-m/nofp/libc_nano.a(lib_a-__call_atexit.o)
 .debug_abbrev  0x0000000000000000      0x179 /usr/lib/gcc/arm-none-eabi/10.3.1/../../../arm-none-eabi/lib/thumb/v7-m/nofp/libc_nano.a(lib_a-__call_atexit.o)
 .debug_loc     0x0000000000000000      0x17d /usr/lib/gcc/arm-none-eabi/10.3.1/../../../arm-none-eabi/lib/thumb/v7-m/nofp/libc_nano.a(lib_a-__call_atexit.o)
 .debug_aranges
                0x0000000000000000       0x20 /usr/lib/gcc/arm-none-eabi/10.3.1/../../../arm-none-eabi/lib/thumb/v7-m/nofp/libc_nano.a(lib_a-__call_atexit.o)
 .debug_ranges  0x0000000000000000       0x30 /usr/lib/gcc/arm-none-eabi/10.3.1/../../../arm-none-eabi/lib/thumb/v7-m/nofp/libc_nano.a(lib_a-__call_atexit.o)
 .debug_line    0x0000000000000000      0x200 /usr/lib/gcc/arm-none-eabi/10.3.1/../../../arm-none-eabi/lib/thumb/v7-m/nofp/libc_nano.a(lib_a-__call_atexit.o)
 .debug_str     0x0000000000000000      0x253 /usr/lib/gcc/arm-none-eabi/10.3.1/../../../arm-none-eabi/lib/thumb/v7-m/nofp/libc_nano.a(lib_a-__call_atexit.o)
 .comment       0x0000000000000000       0x34 /usr/lib/gcc/arm-none-eabi/10.3.1/../../../arm-none-eabi/lib/thumb/v7-m/nofp/libc_nano.a(lib_a-__call_atexit.o)
 .debug_frame   0x0000000000000000       0x40 /usr/lib/gcc/arm-none-eabi/10.3.1/../../../arm-none-eabi/lib/thumb/v7-m/nofp/libc_nano.a(lib_a-__call_atexit.o)
 .ARM.attributes
                0x0000000000000000       0x2d /usr/lib/gcc/arm-none-eabi/10.3.1/../../../arm-none-eabi/lib/thumb/v7-m/nofp/libc_nano.a(lib_a-__call_atexit.o)
 .data          0x0000000000000000        0x0 /usr/lib/gcc/arm-none-eabi/10.3.1/../../../arm-none-eabi/lib/thumb/v7-m/nofp/libc_nano.a(lib_a-dtoa.o)
 .bss           0x0000000000000000        0x0 /usr/lib/gcc/arm-none-eabi/10.3.1/../../../arm-none-eabi/lib/thumb/v7-m/nofp/libc_nano.a(lib_a-dtoa.o)
 .data          0x0000000000000000        0x0 /usr/lib/gcc/arm-none-eabi/10.3.1/../../../arm-none-eabi/lib/thumb/v7-m/nofp/libc_nano.a(lib_a-fflush.o)
 .bss           0x0000000000000000        0x0 /usr/lib/gcc/arm-none-eabi/10.3.1/../../../arm-none-eabi/lib/thumb/v7-m/nofp/libc_nano.a(lib_a-fflush.o)
 .data          0x0000000000000000        0x0 /usr/lib/gcc/arm-none-eabi/10.3.1/../../../arm-none-eabi/lib/thumb/v7-m/nofp/libc_nano.a(lib_a-findfp.o)
 .bss           0x0000000000000000        0x0 /usr/lib/gcc/arm-none-eabi/10.3.1/../../../arm-none-eabi/lib/thumb/v7-m/nofp/libc_nano.a(lib_a-findfp.o)
 .data          0x0000000000000000        0x0 /usr/lib/gcc/arm-none-eabi/10.3.1/../../../arm-none-eabi/lib/thumb/v7-m/nofp/libc_nano.a(lib_a-fwalk.o)
 .bss           0x0000000000000000        0x0 /usr/lib/gcc/arm-none-eabi/10.3.1/../../../arm-none-eabi/lib/thumb/v7-m/nofp/libc_nano.a(lib_a-fwalk.o)
 .data          0x0000000000000000        0x0 /usr/lib/gcc/arm-none-eabi/10.3.1/../../../arm-none-eabi/lib/thumb/v7-m/nofp/libc_nano.a(lib_a-localeconv.o)
 .bss           0x0000000000000000        0x0 /usr/lib/gcc/arm-none-eabi/10.3.1/../../../arm-none-eabi/lib/thumb/v7-m/nofp/libc_nano.a(lib_a-localeconv.o)
 .data          0x0000000000000000        0x0 /usr/lib/gcc/arm-none-eabi/10.3.1/../../../arm-none-eabi/lib/thumb/v7-m/nofp/libc_nano.a(lib_a-makebuf.o)
 .bss           0x0000000000000000        0x0 /usr/lib/gcc/arm-none-eabi/10.3.1/../../../arm-none-eabi/lib/thumb/v7-m/nofp/libc_nano.a(lib_a-makebuf.o)
 .data          0x0000000000000000        0x0 /usr/lib/gcc/arm-none-eabi/10.3.1/../../../arm-none-eabi/lib/thumb/v7-m/nofp/libc_nano.a(lib_a-malloc.o)
 .bss           0x0000000000000000        0x0 /usr/lib/gcc/arm-none-eabi/10.3.1/../../../arm-none-eabi/lib/thumb/v7-m/nofp/libc_nano.a(lib_a-malloc.o)
 .data          0x0000000000000000        0x0 /usr/lib/gcc/arm-none-eabi/10.3.1/../../../arm-none-eabi/lib/thumb/v7-m/nofp/libc_nano.a(lib_a-memchr-stub.o)
 .bss           0x0000000000000000        0x0 /usr/lib/gcc/arm-none-eabi/10.3.1/../../../arm-none-eabi/lib/thumb/v7-m/nofp/libc_nano.a(lib_a-memchr-stub.o)
 .data          0x0000000000000000        0x0 /usr/lib/gcc/arm-none-eabi/10.3.1/../../../arm-none-eabi/lib/thumb/v7-m/nofp/libc_nano.a(lib_a-memcmp.o)
 .bss           0x0000000000000000        0x0 /usr/lib/gcc/arm-none-eabi/10.3.1/../../../arm-none-eabi/lib/thumb/v7-m/nofp/libc_nano.a(lib_a-memcmp.o)
 .data          0x0000000000000000        0x0 /usr/lib/gcc/arm-none-eabi/10.3.1/../../../arm-none-eabi/lib/thumb/v7-m/nofp/libc_nano.a(lib_a-memcpy.o)
 .bss           0x0000000000000000        0x0 /usr/lib/gcc/arm-none-eabi/10.3.1/../../../arm-none-eabi/lib/thumb/v7-m/nofp/libc_nano.a(lib_a-memcpy.o)
 .data          0x0000000000000000        0x0 /usr/lib/gcc/arm-none-eabi/10.3.1/../../../arm-none-eabi/lib/thumb/v7-m/nofp/libc_nano.a(lib_a-mprec.o)
 .bss           0x0000000000000000        0x0 /usr/lib/gcc/arm-none-eabi/10.3.1/../../../arm-none-eabi/lib/thumb/v7-m/nofp/libc_nano.a(lib_a-mprec.o)
 .data          0x0000000000000000        0x0 /usr/lib/gcc/arm-none-eabi/10.3.1/../../../arm-none-eabi/lib/thumb/v7-m/nofp/libc_nano.a(lib_a-nano-callocr.o)
 .bss           0x0000000000000000        0x0 /usr/lib/gcc/arm-none-eabi/10.3.1/../../../arm-none-eabi/lib/thumb/v7-m/nofp/libc_nano.a(lib_a-nano-callocr.o)
 .data          0x0000000000000000        0x0 /usr/lib/gcc/arm-none-eabi/10.3.1/../../../arm-none-eabi/lib/thumb/v7-m/nofp/libc_nano.a(lib_a-nano-freer.o)
 .bss           0x0000000000000000        0x0 /usr/lib/gcc/arm-none-eabi/10.3.1/../../../arm-none-eabi/lib/thumb/v7-m/nofp/libc_nano.a(lib_a-nano-freer.o)
 .data          0x0000000000000000        0x0 /usr/lib/gcc/arm-none-eabi/10.3.1/../../../arm-none-eabi/lib/thumb/v7-m/nofp/libc_nano.a(lib_a-nano-mallocr.o)
 .data          0x0000000000000000        0x0 /usr/lib/gcc/arm-none-eabi/10.3.1/../../../arm-none-eabi/lib/thumb/v7-m/nofp/libc_nano.a(lib_a-nano-svfprintf.o)
 .bss           0x0000000000000000        0x0 /usr/lib/gcc/arm-none-eabi/10.3.1/../../../arm-none-eabi/lib/thumb/v7-m/nofp/libc_nano.a(lib_a-nano-svfprintf.o)
 .data          0x0000000000000000        0x0 /usr/lib/gcc/arm-none-eabi/10.3.1/../../../arm-none-eabi/lib/thumb/v7-m/nofp/libc_nano.a(lib_a-nano-vfprintf.o)
 .bss           0x0000000000000000        0x0 /usr/lib/gcc/arm-none-eabi/10.3.1/../../../arm-none-eabi/lib/thumb/v7-m/nofp/libc_nano.a(lib_a-nano-vfprintf.o)
 .data          0x0000000000000000        0x0 /usr/lib/gcc/arm-none-eabi/10.3.1/../../../arm-none-eabi/lib/thumb/v7-m/nofp/libc_nano.a(lib_a-sbrkr.o)
 .bss           0x0000000000000000        0x0 /usr/lib/gcc/arm-none-eabi/10.3.1/../../../arm-none-eabi/lib/thumb/v7-m/nofp/libc_nano.a(lib_a-sbrkr.o)
 .data          0x0000000000000000        0x0 /usr/lib/gcc/arm-none-eabi/10.3.1/../../../arm-none-eabi/lib/thumb/v7-m/nofp/libc_nano.a(lib_a-stdio.o)
 .bss           0x0000000000000000        0x0 /usr/lib/gcc/arm-none-eabi/10.3.1/../../../arm-none-eabi/lib/thumb/v7-m/nofp/libc_nano.a(lib_a-stdio.o)
 .data          0x0000000000000000        0x0 /usr/lib/gcc/arm-none-eabi/10.3.1/../../../arm-none-eabi/lib/thumb/v7-m/nofp/libc_nano.a(lib_a-strchr.o)
 .bss           0x0000000000000000        0x0 /usr/lib/gcc/arm-none-eabi/10.3.1/../../../arm-none-eabi/lib/thumb/v7-m/nofp/libc_nano.a(lib_a-strchr.o)
 .data          0x0000000000000000        0x0 /usr/lib/gcc/arm-none-eabi/10.3.1/../../../arm-none-eabi/lib/thumb/v7-m/nofp/libc_nano.a(lib_a-strnlen.o)
 .bss           0x0000000000000000        0x0 /usr/lib/gcc/arm-none-eabi/10.3.1/../../../arm-none-eabi/lib/thumb/v7-m/nofp/libc_nano.a(lib_a-strnlen.o)
 .data          0x0000000000000000        0x0 /usr/lib/gcc/arm-none-eabi/10.3.1/../../../arm-none-eabi/lib/thumb/v7-m/nofp/libc_nano.a(lib_a-writer.o)
 .bss           0x0000000000000000        0x0 /usr/lib/gcc/arm-none-eabi/10.3.1/../../../arm-none-eabi/lib/thumb/v7-m/nofp/libc_nano.a(lib_a-writer.o)
 .data          0x0000000000000000        0x0 /usr/lib/gcc/arm-none-eabi/10.3.1/../../../arm-none-eabi/lib/thumb/v7-m/nofp/libc_nano.a(lib_a-assert.o)
 .bss           0x0000000000000000        0x0 /usr/lib/gcc/arm-none-eabi/10.3.1/../../../arm-none-eabi/lib/thumb/v7-m/nofp/libc_nano.a(lib_a-assert.o)
 .data          0x0000000000000000        0x0 /usr/lib/gcc/arm-none-eabi/10.3.1/../../../arm-none-eabi/lib/thumb/v7-m/nofp/libc_nano.a(lib_a-closer.o)
 .bss           0x0000000000000000        0x0 /usr/lib/gcc/arm-none-eabi/10.3.1/../../../arm-none-eabi/lib/thumb/v7-m/nofp/libc_nano.a(lib_a-closer.o)
 .data          0x0000000000000000        0x0 /usr/lib/gcc/arm-none-eabi/10.3.1/../../../arm-none-eabi/lib/thumb/v7-m/nofp/libc_nano.a(lib_a-fprintf.o)
 .bss           0x0000000000000000        0x0 /usr/lib/gcc/arm-none-eabi/10.3.1/../../../arm-none-eabi/lib/thumb/v7-m/nofp/libc_nano.a(lib_a-fprintf.o)
 .data          0x0000000000000000        0x0 /usr/lib/gcc/arm-none-eabi/10.3.1/../../../arm-none-eabi/lib/thumb/v7-m/nofp/libc_nano.a(lib_a-fstatr.o)
 .bss           0x0000000000000000        0x0 /usr/lib/gcc/arm-none-eabi/10.3.1/../../../arm-none-eabi/lib/thumb/v7-m/nofp/libc_nano.a(lib_a-fstatr.o)
 .data          0x0000000000000000        0x0 /usr/lib/gcc/arm-none-eabi/10.3.1/../../../arm-none-eabi/lib/thumb/v7-m/nofp/libc_nano.a(lib_a-fvwrite.o)
 .bss           0x0000000000000000        0x0 /usr/lib/gcc/arm-none-eabi/10.3.1/../../../arm-none-eabi/lib/thumb/v7-m/nofp/libc_nano.a(lib_a-fvwrite.o)
 .data          0x0000000000000000        0x0 /usr/lib/gcc/arm-none-eabi/10.3.1/../../../arm-none-eabi/lib/thumb/v7-m/nofp/libc_nano.a(lib_a-isattyr.o)
 .bss           0x0000000000000000        0x0 /usr/lib/gcc/arm-none-eabi/10.3.1/../../../arm-none-eabi/lib/thumb/v7-m/nofp/libc_nano.a(lib_a-isattyr.o)
 .text          0x0000000000000000       0x8c /usr/lib/gcc/arm-none-eabi/10.3.1/../../../arm-none-eabi/lib/thumb/v7-m/nofp/libc_nano.a(lib_a-locale.o)
 .bss           0x0000000000000000        0x4 /usr/lib/gcc/arm-none-eabi/10.3.1/../../../arm-none-eabi/lib/thumb/v7-m/nofp/libc_nano.a(lib_a-locale.o)
 .data          0x0000000000000000        0x0 /usr/lib/gcc/arm-none-eabi/10.3.1/../../../arm-none-eabi/lib/thumb/v7-m/nofp/libc_nano.a(lib_a-lseekr.o)
 .bss           0x0000000000000000        0x0 /usr/lib/gcc/arm-none-eabi/10.3.1/../../../arm-none-eabi/lib/thumb/v7-m/nofp/libc_nano.a(lib_a-lseekr.o)
 .data          0x0000000000000000        0x0 /usr/lib/gcc/arm-none-eabi/10.3.1/../../../arm-none-eabi/lib/thumb/v7-m/nofp/libc_nano.a(lib_a-mbtowc_r.o)
 .bss           0x0000000000000000        0x0 /usr/lib/gcc/arm-none-eabi/10.3.1/../../../arm-none-eabi/lib/thumb/v7-m/nofp/libc_nano.a(lib_a-mbtowc_r.o)
 .data          0x0000000000000000        0x0 /usr/lib/gcc/arm-none-eabi/10.3.1/../../../arm-none-eabi/lib/thumb/v7-m/nofp/libc_nano.a(lib_a-memmove.o)
 .bss           0x0000000000000000        0x0 /usr/lib/gcc/arm-none-eabi/10.3.1/../../../arm-none-eabi/lib/thumb/v7-m/nofp/libc_nano.a(lib_a-memmove.o)
 .data          0x0000000000000000        0x0 /usr/lib/gcc/arm-none-eabi/10.3.1/../../../arm-none-eabi/lib/thumb/v7-m/nofp/libc_nano.a(lib_a-mlock.o)
 .bss           0x0000000000000000        0x0 /usr/lib/gcc/arm-none-eabi/10.3.1/../../../arm-none-eabi/lib/thumb/v7-m/nofp/libc_nano.a(lib_a-mlock.o)
 .data          0x0000000000000000        0x0 /usr/lib/gcc/arm-none-eabi/10.3.1/../../../arm-none-eabi/lib/thumb/v7-m/nofp/libc_nano.a(lib_a-nano-reallocr.o)
 .bss           0x0000000000000000        0x0 /usr/lib/gcc/arm-none-eabi/10.3.1/../../../arm-none-eabi/lib/thumb/v7-m/nofp/libc_nano.a(lib_a-nano-reallocr.o)
 .data          0x0000000000000000        0x0 /usr/lib/gcc/arm-none-eabi/10.3.1/../../../arm-none-eabi/lib/thumb/v7-m/nofp/libc_nano.a(lib_a-readr.o)
 .bss           0x0000000000000000        0x0 /usr/lib/gcc/arm-none-eabi/10.3.1/../../../arm-none-eabi/lib/thumb/v7-m/nofp/libc_nano.a(lib_a-readr.o)
 .text          0x0000000000000000      0x114 /usr/lib/gcc/arm-none-eabi/10.3.1/../../../arm-none-eabi/lib/thumb/v7-m/nofp/libc_nano.a(lib_a-reent.o)
 .data          0x0000000000000000        0x0 /usr/lib/gcc/arm-none-eabi/10.3.1/../../../arm-none-eabi/lib/thumb/v7-m/nofp/libc_nano.a(lib_a-reent.o)
 .text          0x0000000000000000      0x1bc /usr/lib/gcc/arm-none-eabi/10.3.1/../../../arm-none-eabi/lib/thumb/v7-m/nofp/libc_nano.a(lib_a-strcmp.o)
 .data          0x0000000000000000        0x0 /usr/lib/gcc/arm-none-eabi/10.3.1/../../../arm-none-eabi/lib/thumb/v7-m/nofp/libc_nano.a(lib_a-strcmp.o)
 .bss           0x0000000000000000        0x0 /usr/lib/gcc/arm-none-eabi/10.3.1/../../../arm-none-eabi/lib/thumb/v7-m/nofp/libc_nano.a(lib_a-strcmp.o)
 .debug_line    0x0000000000000000      0x106 /usr/lib/gcc/arm-none-eabi/10.3.1/../../../arm-none-eabi/lib/thumb/v7-m/nofp/libc_nano.a(lib_a-strcmp.o)
 .debug_info    0x0000000000000000       0x26 /usr/lib/gcc/arm-none-eabi/10.3.1/../../../arm-none-eabi/lib/thumb/v7-m/nofp/libc_nano.a(lib_a-strcmp.o)
 .debug_abbrev  0x0000000000000000       0x14 /usr/lib/gcc/arm-none-eabi/10.3.1/../../../arm-none-eabi/lib/thumb/v7-m/nofp/libc_nano.a(lib_a-strcmp.o)
 .debug_aranges
                0x0000000000000000       0x20 /usr/lib/gcc/arm-none-eabi/10.3.1/../../../arm-none-eabi/lib/thumb/v7-m/nofp/libc_nano.a(lib_a-strcmp.o)
 .debug_str     0x0000000000000000       0xb2 /usr/lib/gcc/arm-none-eabi/10.3.1/../../../arm-none-eabi/lib/thumb/v7-m/nofp/libc_nano.a(lib_a-strcmp.o)
 .debug_frame   0x0000000000000000       0x34 /usr/lib/gcc/arm-none-eabi/10.3.1/../../../arm-none-eabi/lib/thumb/v7-m/nofp/libc_nano.a(lib_a-strcmp.o)
 .ARM.attributes
                0x0000000000000000       0x1b /usr/lib/gcc/arm-none-eabi/10.3.1/../../../arm-none-eabi/lib/thumb/v7-m/nofp/libc_nano.a(lib_a-strcmp.o)
 .data          0x0000000000000000        0x0 /usr/lib/gcc/arm-none-eabi/10.3.1/../../../arm-none-eabi/lib/thumb/v7-m/nofp/libc_nano.a(lib_a-wctomb_r.o)
 .bss           0x0000000000000000        0x0 /usr/lib/gcc/arm-none-eabi/10.3.1/../../../arm-none-eabi/lib/thumb/v7-m/nofp/libc_nano.a(lib_a-wctomb_r.o)
 .data          0x0000000000000000        0x0 /usr/lib/gcc/arm-none-eabi/10.3.1/../../../arm-none-eabi/lib/thumb/v7-m/nofp/libc_nano.a(lib_a-abort.o)
 .bss           0x0000000000000000        0x0 /usr/lib/gcc/arm-none-eabi/10.3.1/../../../arm-none-eabi/lib/thumb/v7-m/nofp/libc_nano.a(lib_a-abort.o)
 .text          0x0000000000000000        0x0 /usr/lib/gcc/arm-none-eabi/10.3.1/../../../arm-none-eabi/lib/thumb/v7-m/nofp/libc_nano.a(lib_a-ctype_.o)
 .data          0x0000000000000000        0x0 /usr/lib/gcc/arm-none-eabi/10.3.1/../../../arm-none-eabi/lib/thumb/v7-m/nofp/libc_nano.a(lib_a-ctype_.o)
 .bss           0x0000000000000000        0x0 /usr/lib/gcc/arm-none-eabi/10.3.1/../../../arm-none-eabi/lib/thumb/v7-m/nofp/libc_nano.a(lib_a-ctype_.o)
 .data          0x0000000000000000        0x0 /usr/lib/gcc/arm-none-eabi/10.3.1/../../../arm-none-eabi/lib/thumb/v7-m/nofp/libc_nano.a(lib_a-nano-msizer.o)
 .bss           0x0000000000000000        0x0 /usr/lib/gcc/arm-none-eabi/10.3.1/../../../arm-none-eabi/lib/thumb/v7-m/nofp/libc_nano.a(lib_a-nano-msizer.o)
 .data          0x0000000000000000        0x0 /usr/lib/gcc/arm-none-eabi/10.3.1/../../../arm-none-eabi/lib/thumb/v7-m/nofp/libc_nano.a(lib_a-signal.o)
 .bss           0x0000000000000000        0x0 /usr/lib/gcc/arm-none-eabi/10.3.1/../../../arm-none-eabi/lib/thumb/v7-m/nofp/libc_nano.a(lib_a-signal.o)
 .data          0x0000000000000000        0x0 /usr/lib/gcc/arm-none-eabi/10.3.1/../../../arm-none-eabi/lib/thumb/v7-m/nofp/libc_nano.a(lib_a-signalr.o)
 .bss           0x0000000000000000        0x0 /usr/lib/gcc/arm-none-eabi/10.3.1/../../../arm-none-eabi/lib/thumb/v7-m/nofp/libc_nano.a(lib_a-signalr.o)
 .data          0x0000000000000000        0x0 /usr/lib/gcc/arm-none-eabi/10.3.1/thumb/v7-m/nofp/libgcc.a(_arm_cmpdf2.o)
 .bss           0x0000000000000000        0x0 /usr/lib/gcc/arm-none-eabi/10.3.1/thumb/v7-m/nofp/libgcc.a(_arm_cmpdf2.o)
 .data          0x0000000000000000        0x0 /usr/lib/gcc/arm-none-eabi/10.3.1/thumb/v7-m/nofp/libgcc.a(_arm_unorddf2.o)
 .bss           0x0000000000000000        0x0 /usr/lib/gcc/arm-none-eabi/10.3.1/thumb/v7-m/nofp/libgcc.a(_arm_unorddf2.o)
 .data          0x0000000000000000        0x0 /usr/lib/gcc/arm-none-eabi/10.3.1/thumb/v7-m/nofp/libgcc.a(_arm_fixdfsi.o)
 .bss           0x0000000000000000        0x0 /usr/lib/gcc/arm-none-eabi/10.3.1/thumb/v7-m/nofp/libgcc.a(_arm_fixdfsi.o)
 .data          0x0000000000000000        0x0 /usr/lib/gcc/arm-none-eabi/10.3.1/../../../arm-none-eabi/lib/thumb/v7-m/nofp/libnosys.a(close.o)
 .bss           0x0000000000000000        0x0 /usr/lib/gcc/arm-none-eabi/10.3.1/../../../arm-none-eabi/lib/thumb/v7-m/nofp/libnosys.a(close.o)
 .data          0x0000000000000000        0x0 /usr/lib/gcc/arm-none-eabi/10.3.1/../../../arm-none-eabi/lib/thumb/v7-m/nofp/libnosys.a(fstat.o)
 .bss           0x0000000000000000        0x0 /usr/lib/gcc/arm-none-eabi/10.3.1/../../../arm-none-eabi/lib/thumb/v7-m/nofp/libnosys.a(fstat.o)
 .data          0x0000000000000000        0x0 /usr/lib/gcc/arm-none-eabi/10.3.1/../../../arm-none-eabi/lib/thumb/v7-m/nofp/libnosys.a(getpid.o)
 .bss           0x0000000000000000        0x0 /usr/lib/gcc/arm-none-eabi/10.3.1/../../../arm-none-eabi/lib/thumb/v7-m/nofp/libnosys.a(getpid.o)
 .data          0x0000000000000000        0x0 /usr/lib/gcc/arm-none-eabi/10.3.1/../../../arm-none-eabi/lib/thumb/v7-m/nofp/libnosys.a(isatty.o)
 .bss           0x0000000000000000        0x0 /usr/lib/gcc/arm-none-eabi/10.3.1/../../../arm-none-eabi/lib/thumb/v7-m/nofp/libnosys.a(isatty.o)
 .data          0x0000000000000000        0x0 /usr/lib/gcc/arm-none-eabi/10.3.1/../../../arm-none-eabi/lib/thumb/v7-m/nofp/libnosys.a(kill.o)
 .bss           0x0000000000000000        0x0 /usr/lib/gcc/arm-none-eabi/10.3.1/../../../arm-none-eabi/lib/thumb/v7-m/nofp/libnosys.a(kill.o)
 .data          0x0000000000000000        0x0 /usr/lib/gcc/arm-none-eabi/10.3.1/../../../arm-none-eabi/lib/thumb/v7-m/nofp/libnosys.a(lseek.o)
 .bss           0x0000000000000000        0x0 /usr/lib/gcc/arm-none-eabi/10.3.1/../../../arm-none-eabi/lib/thumb/v7-m/nofp/libnosys.a(lseek.o)
 .data          0x0000000000000000        0x0 /usr/lib/gcc/arm-none-eabi/10.3.1/../../../arm-none-eabi/lib/thumb/v7-m/nofp/libnosys.a(read.o)
 .bss           0x0000000000000000        0x0 /usr/lib/gcc/arm-none-eabi/10.3.1/../../../arm-none-eabi/lib/thumb/v7-m/nofp/libnosys.a(read.o)
 .data          0x0000000000000000        0x0 /usr/lib/gcc/arm-none-eabi/10.3.1/../../../arm-none-eabi/lib/thumb/v7-m/nofp/libnosys.a(sbrk.o)
 .data          0x0000000000000000        0x0 /usr/lib/gcc/arm-none-eabi/10.3.1/../../../arm-none-eabi/lib/thumb/v7-m/nofp/libnosys.a(_exit.o)
 .bss           0x0000000000000000        0x0 /usr/lib/gcc/arm-none-eabi/10.3.1/../../../arm-none-eabi/lib/thumb/v7-m/nofp/libnosys.a(_exit.o)
 .text          0x0000000000000000        0x0 /usr/lib/gcc/arm-none-eabi/10.3.1/thumb/v7-m/nofp/crtend.o
 .data          0x0000000000000000        0x0 /usr/lib/gcc/arm-none-eabi/10.3.1/thumb/v7-m/nofp/crtend.o
 .bss           0x0000000000000000        0x0 /usr/lib/gcc/arm-none-eabi/10.3.1/thumb/v7-m/nofp/crtend.o
 .rodata        0x0000000000000000       0x24 /usr/lib/gcc/arm-none-eabi/10.3.1/thumb/v7-m/nofp/crtend.o
 .eh_frame      0x0000000000000000        0x4 /usr/lib/gcc/arm-none-eabi/10.3.1/thumb/v7-m/nofp/crtend.o
 .text          0x0000000000000000        0x0 /usr/lib/gcc/arm-none-eabi/10.3.1/thumb/v7-m/nofp/crtn.o
 .data          0x0000000000000000        0x0 /usr/lib/gcc/arm-none-eabi/10.3.1/thumb/v7-m/nofp/crtn.o
 .bss           0x0000000000000000        0x0 /usr/lib/gcc/arm-none-eabi/10.3.1/thumb/v7-m/nofp/crtn.o

Memory Configuration

Name             Origin             Length             Attributes
RAM              0x0000000020000000 0x0000000000005000 xrw
FLASH            0x0000000008000000 0x0000000000010000 xr
*default*        0x0000000000000000 0xffffffffffffffff

Linker script and memory map

LOAD /usr/lib/gcc/arm-none-eabi/10.3.1/thumb/v7-m/nofp/crti.o
LOAD /usr/lib/gcc/arm-none-eabi/10.3.1/thumb/v7-m/nofp/crtbegin.o
LOAD /usr/lib/gcc/arm-none-eabi/10.3.1/../../../arm-none-eabi/lib/thumb/v7-m/nofp/crt0.o
LOAD CMakeFiles/Project.elf.dir/Code/Src/GPS.c.obj
LOAD CMakeFiles/Project.elf.dir/Code/Src/GPS_Usart.c.obj
LOAD CMakeFiles/Project.elf.dir/Code/Src/I2COLED.c.obj
LOAD CMakeFiles/Project.elf.dir/Code/Src/LED.c.obj
LOAD CMakeFiles/Project.elf.dir/Code/Src/NBIOT_Usart.c.obj
LOAD CMakeFiles/Project.elf.dir/Code/Src/OLED.c.obj
LOAD CMakeFiles/Project.elf.dir/Code/Src/OneWrite.c.obj
LOAD CMakeFiles/Project.elf.dir/Code/Src/Usart.c.obj
LOAD CMakeFiles/Project.elf.dir/Code/Src/nbiot.c.obj
LOAD CMakeFiles/Project.elf.dir/Lib/Src/misc.c.obj
LOAD CMakeFiles/Project.elf.dir/Lib/Src/stm32f10x_adc.c.obj
LOAD CMakeFiles/Project.elf.dir/Lib/Src/stm32f10x_bkp.c.obj
LOAD CMakeFiles/Project.elf.dir/Lib/Src/stm32f10x_can.c.obj
LOAD CMakeFiles/Project.elf.dir/Lib/Src/stm32f10x_cec.c.obj
LOAD CMakeFiles/Project.elf.dir/Lib/Src/stm32f10x_crc.c.obj
LOAD CMakeFiles/Project.elf.dir/Lib/Src/stm32f10x_dac.c.obj
LOAD CMakeFiles/Project.elf.dir/Lib/Src/stm32f10x_dbgmcu.c.obj
LOAD CMakeFiles/Project.elf.dir/Lib/Src/stm32f10x_dma.c.obj
LOAD CMakeFiles/Project.elf.dir/Lib/Src/stm32f10x_exti.c.obj
LOAD CMakeFiles/Project.elf.dir/Lib/Src/stm32f10x_flash.c.obj
LOAD CMakeFiles/Project.elf.dir/Lib/Src/stm32f10x_fsmc.c.obj
LOAD CMakeFiles/Project.elf.dir/Lib/Src/stm32f10x_gpio.c.obj
LOAD CMakeFiles/Project.elf.dir/Lib/Src/stm32f10x_i2c.c.obj
LOAD CMakeFiles/Project.elf.dir/Lib/Src/stm32f10x_iwdg.c.obj
LOAD CMakeFiles/Project.elf.dir/Lib/Src/stm32f10x_pwr.c.obj
LOAD CMakeFiles/Project.elf.dir/Lib/Src/stm32f10x_rcc.c.obj
LOAD CMakeFiles/Project.elf.dir/Lib/Src/stm32f10x_rtc.c.obj
LOAD CMakeFiles/Project.elf.dir/Lib/Src/stm32f10x_sdio.c.obj
LOAD CMakeFiles/Project.elf.dir/Lib/Src/stm32f10x_spi.c.obj
LOAD CMakeFiles/Project.elf.dir/Lib/Src/stm32f10x_tim.c.obj
LOAD CMakeFiles/Project.elf.dir/Lib/Src/stm32f10x_usart.c.obj
LOAD CMakeFiles/Project.elf.dir/Lib/Src/stm32f10x_wwdg.c.obj
LOAD CMakeFiles/Project.elf.dir/Project/Code-Cmake/startup_stm32f10x_md.s.obj
LOAD CMakeFiles/Project.elf.dir/Start/Src/core_cm3.c.obj
LOAD CMakeFiles/Project.elf.dir/Start/Src/stm32f10x_it.c.obj
LOAD CMakeFiles/Project.elf.dir/Start/Src/system_stm32f10x.c.obj
LOAD CMakeFiles/Project.elf.dir/System/Src/Delay.c.obj
LOAD CMakeFiles/Project.elf.dir/User/main.c.obj
START GROUP
LOAD /usr/lib/gcc/arm-none-eabi/10.3.1/thumb/v7-m/nofp/libgcc.a
LOAD /usr/lib/gcc/arm-none-eabi/10.3.1/../../../arm-none-eabi/lib/thumb/v7-m/nofp/libc_nano.a
END GROUP
START GROUP
LOAD /usr/lib/gcc/arm-none-eabi/10.3.1/thumb/v7-m/nofp/libgcc.a
LOAD /usr/lib/gcc/arm-none-eabi/10.3.1/../../../arm-none-eabi/lib/thumb/v7-m/nofp/libc_nano.a
LOAD /usr/lib/gcc/arm-none-eabi/10.3.1/../../../arm-none-eabi/lib/thumb/v7-m/nofp/libnosys.a
END GROUP
START GROUP
LOAD /usr/lib/gcc/arm-none-eabi/10.3.1/thumb/v7-m/nofp/libgcc.a
LOAD /usr/lib/gcc/arm-none-eabi/10.3.1/../../../arm-none-eabi/lib/thumb/v7-m/nofp/libc_nano.a
LOAD /usr/lib/gcc/arm-none-eabi/10.3.1/../../../arm-none-eabi/lib/thumb/v7-m/nofp/libnosys.a
END GROUP
LOAD /usr/lib/gcc/arm-none-eabi/10.3.1/thumb/v7-m/nofp/crtend.o
LOAD /usr/lib/gcc/arm-none-eabi/10.3.1/thumb/v7-m/nofp/crtn.o
                0x0000000020005000                _estack = (ORIGIN (RAM) + LENGTH (RAM))
                0x0000000000000200                _Min_Heap_Size = 0x200
                0x0000000000000400                _Min_Stack_Size = 0x400

.isr_vector     0x0000000008000000      0x10c
                0x0000000008000000                . = ALIGN (0x4)
 *(.isr_vector)
 .isr_vector    0x0000000008000000      0x10c CMakeFiles/Project.elf.dir/Project/Code-Cmake/startup_stm32f10x_md.s.obj
                0x0000000008000000                g_pfnVectors
                0x000000000800010c                . = ALIGN (0x4)

.text           0x0000000008000110     0x6c3c
                0x0000000008000110                . = ALIGN (0x4)
 *(.text)
 .text          0x0000000008000110       0x88 /usr/lib/gcc/arm-none-eabi/10.3.1/thumb/v7-m/nofp/crtbegin.o
 .text          0x0000000008000198      0x378 /usr/lib/gcc/arm-none-eabi/10.3.1/thumb/v7-m/nofp/libgcc.a(_arm_addsubdf3.o)
                0x0000000008000198                __aeabi_drsub
                0x00000000080001a0                __aeabi_dsub
                0x00000000080001a0                __subdf3
                0x00000000080001a4                __adddf3
                0x00000000080001a4                __aeabi_dadd
                0x000000000800041c                __aeabi_ui2d
                0x000000000800041c                __floatunsidf
                0x000000000800043c                __floatsidf
                0x000000000800043c                __aeabi_i2d
                0x0000000008000460                __extendsfdf2
                0x0000000008000460                __aeabi_f2d
                0x00000000080004a4                __aeabi_ul2d
                0x00000000080004a4                __floatundidf
                0x00000000080004b4                __floatdidf
                0x00000000080004b4                __aeabi_l2d
 .text          0x0000000008000510      0x424 /usr/lib/gcc/arm-none-eabi/10.3.1/thumb/v7-m/nofp/libgcc.a(_arm_muldivdf3.o)
                0x0000000008000510                __aeabi_dmul
                0x0000000008000510                __muldf3
                0x0000000008000764                __aeabi_ddiv
                0x0000000008000764                __divdf3
 .text          0x0000000008000934       0xa0 /usr/lib/gcc/arm-none-eabi/10.3.1/thumb/v7-m/nofp/libgcc.a(_arm_truncdfsf2.o)
                0x0000000008000934                __aeabi_d2f
                0x0000000008000934                __truncdfsf2
 .text          0x00000000080009d4      0x21c /usr/lib/gcc/arm-none-eabi/10.3.1/thumb/v7-m/nofp/libgcc.a(_arm_addsubsf3.o)
                0x00000000080009d4                __aeabi_frsub
                0x00000000080009dc                __subsf3
                0x00000000080009dc                __aeabi_fsub
                0x00000000080009e0                __aeabi_fadd
                0x00000000080009e0                __addsf3
                0x0000000008000b40                __aeabi_ui2f
                0x0000000008000b40                __floatunsisf
                0x0000000008000b48                __aeabi_i2f
                0x0000000008000b48                __floatsisf
                0x0000000008000b64                __floatundisf
                0x0000000008000b64                __aeabi_ul2f
                0x0000000008000b74                __floatdisf
                0x0000000008000b74                __aeabi_l2f
 .text          0x0000000008000bf0       0xa4 /usr/lib/gcc/arm-none-eabi/10.3.1/../../../arm-none-eabi/lib/thumb/v7-m/nofp/libc_nano.a(lib_a-memset.o)
                0x0000000008000bf0                memset
 .text          0x0000000008000c94      0x6e4 /usr/lib/gcc/arm-none-eabi/10.3.1/../../../arm-none-eabi/lib/thumb/v7-m/nofp/libc_nano.a(lib_a-nano-vfprintf_float.o)
                0x0000000008000c94                __cvt
                0x0000000008000d88                __exponent
                0x0000000008000e24                _printf_float
 .text          0x0000000008001378      0x3d8 /usr/lib/gcc/arm-none-eabi/10.3.1/../../../arm-none-eabi/lib/thumb/v7-m/nofp/libc_nano.a(lib_a-nano-vfprintf_i.o)
                0x0000000008001378                _printf_common
                0x00000000080014a4                _printf_i
 .text          0x0000000008001750       0x60 /usr/lib/gcc/arm-none-eabi/10.3.1/../../../arm-none-eabi/lib/thumb/v7-m/nofp/libc_nano.a(lib_a-printf.o)
                0x0000000008001750                _printf_r
                0x0000000008001750                _iprintf_r
                0x000000000800177c                printf
                0x000000000800177c                iprintf
 .text          0x00000000080017b0       0xe0 /usr/lib/gcc/arm-none-eabi/10.3.1/../../../arm-none-eabi/lib/thumb/v7-m/nofp/libc_nano.a(lib_a-puts.o)
                0x00000000080017b0                _puts_r
                0x0000000008001880                puts
 .text          0x0000000008001890       0x80 /usr/lib/gcc/arm-none-eabi/10.3.1/../../../arm-none-eabi/lib/thumb/v7-m/nofp/libc_nano.a(lib_a-sprintf.o)
                0x0000000008001890                _siprintf_r
                0x0000000008001890                _sprintf_r
                0x00000000080018cc                sprintf
                0x00000000080018cc                siprintf
 .text          0x0000000008001910       0xbc /usr/lib/gcc/arm-none-eabi/10.3.1/../../../arm-none-eabi/lib/thumb/v7-m/nofp/libc_nano.a(lib_a-strcpy.o)
                0x0000000008001910                strcpy
 .text          0x00000000080019cc       0x5c /usr/lib/gcc/arm-none-eabi/10.3.1/../../../arm-none-eabi/lib/thumb/v7-m/nofp/libc_nano.a(lib_a-strlen-stub.o)
                0x00000000080019cc                strlen
 .text          0x0000000008001a28      0x420 /usr/lib/gcc/arm-none-eabi/10.3.1/../../../arm-none-eabi/lib/thumb/v7-m/nofp/libc_nano.a(lib_a-strstr.o)
                0x0000000008001ce0                strstr
 .text          0x0000000008001e48       0xc4 /usr/lib/gcc/arm-none-eabi/10.3.1/../../../arm-none-eabi/lib/thumb/v7-m/nofp/libc_nano.a(lib_a-wbuf.o)
                0x0000000008001e48                __swbuf_r
                0x0000000008001ef8                __swbuf
 .text          0x0000000008001f0c      0x104 /usr/lib/gcc/arm-none-eabi/10.3.1/../../../arm-none-eabi/lib/thumb/v7-m/nofp/libc_nano.a(lib_a-wsetup.o)
                0x0000000008001f0c                __swsetup_r
 .text          0x0000000008002010     0x1034 /usr/lib/gcc/arm-none-eabi/10.3.1/../../../arm-none-eabi/lib/thumb/v7-m/nofp/libc_nano.a(lib_a-dtoa.o)
                0x000000000800213c                _dtoa_r
 .text          0x0000000008003044      0x1dc /usr/lib/gcc/arm-none-eabi/10.3.1/../../../arm-none-eabi/lib/thumb/v7-m/nofp/libc_nano.a(lib_a-fflush.o)
                0x0000000008003044                __sflush_r
                0x000000000800314c                _fflush_r
                0x00000000080031a0                fflush
 .text          0x0000000008003220      0x230 /usr/lib/gcc/arm-none-eabi/10.3.1/../../../arm-none-eabi/lib/thumb/v7-m/nofp/libc_nano.a(lib_a-findfp.o)
                0x0000000008003224                _cleanup_r
                0x0000000008003234                __sfmoreglue
                0x0000000008003264                __sfp
                0x00000000080033fc                _cleanup
                0x0000000008003410                __sinit
                0x0000000008003418                __sfp_lock_acquire
                0x000000000800341c                __sfp_lock_release
                0x0000000008003420                __sinit_lock_acquire
                0x0000000008003424                __sinit_lock_release
                0x0000000008003428                __fp_lock_all
                0x000000000800343c                __fp_unlock_all
 .text          0x0000000008003450       0x88 /usr/lib/gcc/arm-none-eabi/10.3.1/../../../arm-none-eabi/lib/thumb/v7-m/nofp/libc_nano.a(lib_a-fwalk.o)
                0x0000000008003450                _fwalk
                0x0000000008003490                _fwalk_reent
 .text          0x00000000080034d8       0x14 /usr/lib/gcc/arm-none-eabi/10.3.1/../../../arm-none-eabi/lib/thumb/v7-m/nofp/libc_nano.a(lib_a-localeconv.o)
                0x00000000080034d8                __localeconv_l
                0x00000000080034dc                _localeconv_r
                0x00000000080034e4                localeconv
 .text          0x00000000080034ec      0x11c /usr/lib/gcc/arm-none-eabi/10.3.1/../../../arm-none-eabi/lib/thumb/v7-m/nofp/libc_nano.a(lib_a-makebuf.o)
                0x00000000080034ec                __smakebuf_r
                0x00000000080035ac                __swhatbuf_r
 .text          0x0000000008003608       0x20 /usr/lib/gcc/arm-none-eabi/10.3.1/../../../arm-none-eabi/lib/thumb/v7-m/nofp/libc_nano.a(lib_a-malloc.o)
                0x0000000008003608                malloc
                0x0000000008003618                free
 .text          0x0000000008003628       0x90 /usr/lib/gcc/arm-none-eabi/10.3.1/../../../arm-none-eabi/lib/thumb/v7-m/nofp/libc_nano.a(lib_a-memchr-stub.o)
                0x0000000008003628                memchr
 .text          0x00000000080036b8       0x68 /usr/lib/gcc/arm-none-eabi/10.3.1/../../../arm-none-eabi/lib/thumb/v7-m/nofp/libc_nano.a(lib_a-memcmp.o)
                0x00000000080036b8                memcmp
 .text          0x0000000008003720       0xec /usr/lib/gcc/arm-none-eabi/10.3.1/../../../arm-none-eabi/lib/thumb/v7-m/nofp/libc_nano.a(lib_a-memcpy.o)
                0x0000000008003720                memcpy
 .text          0x000000000800380c      0xabc /usr/lib/gcc/arm-none-eabi/10.3.1/../../../arm-none-eabi/lib/thumb/v7-m/nofp/libc_nano.a(lib_a-mprec.o)
                0x000000000800380c                _Balloc
                0x000000000800388c                _Bfree
                0x00000000080038d4                __multadd
                0x0000000008003970                __s2b
                0x0000000008003a24                __hi0bits
                0x0000000008003a64                __lo0bits
                0x0000000008003abc                __i2b
                0x0000000008003ae8                __multiply
                0x0000000008003c44                __pow5mult
                0x0000000008003d24                __lshift
                0x0000000008003e0c                __mcmp
                0x0000000008003e4c                __mdiff
                0x0000000008003f98                __ulp
                0x0000000008003fdc                __b2d
                0x00000000080040ac                __d2b
                0x0000000008004170                __ratio
                0x00000000080041d0                _mprec_log10
                0x0000000008004208                __copybits
                0x0000000008004268                __any_on
 .text          0x00000000080042c8       0x1c /usr/lib/gcc/arm-none-eabi/10.3.1/../../../arm-none-eabi/lib/thumb/v7-m/nofp/libc_nano.a(lib_a-nano-callocr.o)
                0x00000000080042c8                _calloc_r
 .text          0x00000000080042e4       0xcc /usr/lib/gcc/arm-none-eabi/10.3.1/../../../arm-none-eabi/lib/thumb/v7-m/nofp/libc_nano.a(lib_a-nano-freer.o)
                0x00000000080042e4                _free_r
 .text          0x00000000080043b0       0xb8 /usr/lib/gcc/arm-none-eabi/10.3.1/../../../arm-none-eabi/lib/thumb/v7-m/nofp/libc_nano.a(lib_a-nano-mallocr.o)
                0x00000000080043b0                _malloc_r
 .text          0x0000000008004468      0x3f4 /usr/lib/gcc/arm-none-eabi/10.3.1/../../../arm-none-eabi/lib/thumb/v7-m/nofp/libc_nano.a(lib_a-nano-svfprintf.o)
                0x0000000008004468                __ssputs_r
                0x000000000800452c                __ssprint_r
                0x0000000008004628                _svfprintf_r
                0x0000000008004628                _svfiprintf_r
 .text          0x000000000800485c      0x320 /usr/lib/gcc/arm-none-eabi/10.3.1/../../../arm-none-eabi/lib/thumb/v7-m/nofp/libc_nano.a(lib_a-nano-vfprintf.o)
                0x0000000008004884                __sfputs_r
                0x00000000080048b4                __sprint_r
                0x00000000080048d0                _vfiprintf_r
                0x00000000080048d0                _vfprintf_r
                0x0000000008004b60                vfiprintf
                0x0000000008004b60                vfprintf
 .text          0x0000000008004b7c       0x24 /usr/lib/gcc/arm-none-eabi/10.3.1/../../../arm-none-eabi/lib/thumb/v7-m/nofp/libc_nano.a(lib_a-sbrkr.o)
                0x0000000008004b7c                _sbrk_r
 .text          0x0000000008004ba0       0x90 /usr/lib/gcc/arm-none-eabi/10.3.1/../../../arm-none-eabi/lib/thumb/v7-m/nofp/libc_nano.a(lib_a-stdio.o)
                0x0000000008004ba0                __sread
                0x0000000008004bc4                __seofread
                0x0000000008004bc8                __swrite
                0x0000000008004c08                __sseek
                0x0000000008004c28                __sclose
 .text          0x0000000008004c30       0xcc /usr/lib/gcc/arm-none-eabi/10.3.1/../../../arm-none-eabi/lib/thumb/v7-m/nofp/libc_nano.a(lib_a-strchr.o)
                0x0000000008004c30                strchr
 .text          0x0000000008004cfc       0x24 /usr/lib/gcc/arm-none-eabi/10.3.1/../../../arm-none-eabi/lib/thumb/v7-m/nofp/libc_nano.a(lib_a-strnlen.o)
                0x0000000008004cfc                strnlen
 .text          0x0000000008004d20       0x2c /usr/lib/gcc/arm-none-eabi/10.3.1/../../../arm-none-eabi/lib/thumb/v7-m/nofp/libc_nano.a(lib_a-writer.o)
                0x0000000008004d20                _write_r
 .text          0x0000000008004d4c       0x4c /usr/lib/gcc/arm-none-eabi/10.3.1/../../../arm-none-eabi/lib/thumb/v7-m/nofp/libc_nano.a(lib_a-assert.o)
                0x0000000008004d4c                __assert_func
                0x0000000008004d8c                __assert
 .text          0x0000000008004d98       0x24 /usr/lib/gcc/arm-none-eabi/10.3.1/../../../arm-none-eabi/lib/thumb/v7-m/nofp/libc_nano.a(lib_a-closer.o)
                0x0000000008004d98                _close_r
 .text          0x0000000008004dbc       0x44 /usr/lib/gcc/arm-none-eabi/10.3.1/../../../arm-none-eabi/lib/thumb/v7-m/nofp/libc_nano.a(lib_a-fprintf.o)
                0x0000000008004dbc                _fprintf_r
                0x0000000008004dbc                _fiprintf_r
                0x0000000008004dd8                fprintf
                0x0000000008004dd8                fiprintf
 .text          0x0000000008004e00       0x28 /usr/lib/gcc/arm-none-eabi/10.3.1/../../../arm-none-eabi/lib/thumb/v7-m/nofp/libc_nano.a(lib_a-fstatr.o)
                0x0000000008004e00                _fstat_r
 .text          0x0000000008004e28      0x2f0 /usr/lib/gcc/arm-none-eabi/10.3.1/../../../arm-none-eabi/lib/thumb/v7-m/nofp/libc_nano.a(lib_a-fvwrite.o)
                0x0000000008004e28                __sfvwrite_r
 .text          0x0000000008005118       0x24 /usr/lib/gcc/arm-none-eabi/10.3.1/../../../arm-none-eabi/lib/thumb/v7-m/nofp/libc_nano.a(lib_a-isattyr.o)
                0x0000000008005118                _isatty_r
 .text          0x000000000800513c       0x2c /usr/lib/gcc/arm-none-eabi/10.3.1/../../../arm-none-eabi/lib/thumb/v7-m/nofp/libc_nano.a(lib_a-lseekr.o)
                0x000000000800513c                _lseek_r
 .text          0x0000000008005168       0x40 /usr/lib/gcc/arm-none-eabi/10.3.1/../../../arm-none-eabi/lib/thumb/v7-m/nofp/libc_nano.a(lib_a-mbtowc_r.o)
                0x0000000008005168                _mbtowc_r
                0x000000000800517c                __ascii_mbtowc
 .text          0x00000000080051a8       0xf8 /usr/lib/gcc/arm-none-eabi/10.3.1/../../../arm-none-eabi/lib/thumb/v7-m/nofp/libc_nano.a(lib_a-memmove.o)
                0x00000000080051a8                memmove
 .text          0x00000000080052a0        0x8 /usr/lib/gcc/arm-none-eabi/10.3.1/../../../arm-none-eabi/lib/thumb/v7-m/nofp/libc_nano.a(lib_a-mlock.o)
                0x00000000080052a0                __malloc_lock
                0x00000000080052a4                __malloc_unlock
 .text          0x00000000080052a8       0x50 /usr/lib/gcc/arm-none-eabi/10.3.1/../../../arm-none-eabi/lib/thumb/v7-m/nofp/libc_nano.a(lib_a-nano-reallocr.o)
                0x00000000080052a8                _realloc_r
 .text          0x00000000080052f8       0x2c /usr/lib/gcc/arm-none-eabi/10.3.1/../../../arm-none-eabi/lib/thumb/v7-m/nofp/libc_nano.a(lib_a-readr.o)
                0x00000000080052f8                _read_r
 .text          0x0000000008005324       0x30 /usr/lib/gcc/arm-none-eabi/10.3.1/../../../arm-none-eabi/lib/thumb/v7-m/nofp/libc_nano.a(lib_a-wctomb_r.o)
                0x0000000008005324                _wctomb_r
                0x0000000008005338                __ascii_wctomb
 .text          0x0000000008005354       0x10 /usr/lib/gcc/arm-none-eabi/10.3.1/../../../arm-none-eabi/lib/thumb/v7-m/nofp/libc_nano.a(lib_a-abort.o)
                0x0000000008005354                abort
 .text          0x0000000008005364       0x14 /usr/lib/gcc/arm-none-eabi/10.3.1/../../../arm-none-eabi/lib/thumb/v7-m/nofp/libc_nano.a(lib_a-nano-msizer.o)
                0x0000000008005364                _malloc_usable_size_r
 .text          0x0000000008005378      0x26c /usr/lib/gcc/arm-none-eabi/10.3.1/../../../arm-none-eabi/lib/thumb/v7-m/nofp/libc_nano.a(lib_a-signal.o)
                0x0000000008005378                _init_signal_r
                0x00000000080053a4                _signal_r
                0x00000000080053ec                _raise_r
                0x0000000008005440                __sigtramp_r
                0x00000000080054a4                raise
                0x00000000080054fc                signal
                0x000000000800554c                _init_signal
                0x0000000008005580                __sigtramp
 .text          0x00000000080055e4       0x2c /usr/lib/gcc/arm-none-eabi/10.3.1/../../../arm-none-eabi/lib/thumb/v7-m/nofp/libc_nano.a(lib_a-signalr.o)
                0x00000000080055e4                _kill_r
                0x000000000800560c                _getpid_r
 .text          0x0000000008005610      0x110 /usr/lib/gcc/arm-none-eabi/10.3.1/thumb/v7-m/nofp/libgcc.a(_arm_cmpdf2.o)
                0x0000000008005610                __gtdf2
                0x0000000008005610                __gedf2
                0x0000000008005618                __ltdf2
                0x0000000008005618                __ledf2
                0x0000000008005620                __cmpdf2
                0x0000000008005620                __eqdf2
                0x0000000008005620                __nedf2
                0x000000000800569c                __aeabi_cdrcmple
                0x00000000080056ac                __aeabi_cdcmple
                0x00000000080056ac                __aeabi_cdcmpeq
                0x00000000080056bc                __aeabi_dcmpeq
                0x00000000080056d0                __aeabi_dcmplt
                0x00000000080056e4                __aeabi_dcmple
                0x00000000080056f8                __aeabi_dcmpge
                0x000000000800570c                __aeabi_dcmpgt
 .text          0x0000000008005720       0x2c /usr/lib/gcc/arm-none-eabi/10.3.1/thumb/v7-m/nofp/libgcc.a(_arm_unorddf2.o)
                0x0000000008005720                __aeabi_dcmpun
                0x0000000008005720                __unorddf2
 .text          0x000000000800574c       0x50 /usr/lib/gcc/arm-none-eabi/10.3.1/thumb/v7-m/nofp/libgcc.a(_arm_fixdfsi.o)
                0x000000000800574c                __fixdfsi
                0x000000000800574c                __aeabi_d2iz
 .text          0x000000000800579c       0x10 /usr/lib/gcc/arm-none-eabi/10.3.1/../../../arm-none-eabi/lib/thumb/v7-m/nofp/libnosys.a(close.o)
                0x000000000800579c                _close
 .text          0x00000000080057ac       0x10 /usr/lib/gcc/arm-none-eabi/10.3.1/../../../arm-none-eabi/lib/thumb/v7-m/nofp/libnosys.a(fstat.o)
                0x00000000080057ac                _fstat
 .text          0x00000000080057bc       0x10 /usr/lib/gcc/arm-none-eabi/10.3.1/../../../arm-none-eabi/lib/thumb/v7-m/nofp/libnosys.a(getpid.o)
                0x00000000080057bc                _getpid
 .text          0x00000000080057cc       0x10 /usr/lib/gcc/arm-none-eabi/10.3.1/../../../arm-none-eabi/lib/thumb/v7-m/nofp/libnosys.a(isatty.o)
                0x00000000080057cc                _isatty
 .text          0x00000000080057dc       0x10 /usr/lib/gcc/arm-none-eabi/10.3.1/../../../arm-none-eabi/lib/thumb/v7-m/nofp/libnosys.a(kill.o)
                0x00000000080057dc                _kill
 .text          0x00000000080057ec       0x10 /usr/lib/gcc/arm-none-eabi/10.3.1/../../../arm-none-eabi/lib/thumb/v7-m/nofp/libnosys.a(lseek.o)
                0x00000000080057ec                _lseek
 .text          0x00000000080057fc       0x10 /usr/lib/gcc/arm-none-eabi/10.3.1/../../../arm-none-eabi/lib/thumb/v7-m/nofp/libnosys.a(read.o)
                0x00000000080057fc                _read
 .text          0x000000000800580c       0x1c /usr/lib/gcc/arm-none-eabi/10.3.1/../../../arm-none-eabi/lib/thumb/v7-m/nofp/libnosys.a(sbrk.o)
                0x000000000800580c                _sbrk
 .text          0x0000000008005828        0x4 /usr/lib/gcc/arm-none-eabi/10.3.1/../../../arm-none-eabi/lib/thumb/v7-m/nofp/libnosys.a(_exit.o)
                0x0000000008005828                _exit
 *(.text*)
 .text.GPS_init
                0x000000000800582c        0x8 CMakeFiles/Project.elf.dir/Code/Src/GPS.c.obj
                0x000000000800582c                GPS_init
 .text.GPS_get  0x0000000008005834        0xa CMakeFiles/Project.elf.dir/Code/Src/GPS.c.obj
                0x0000000008005834                GPS_get
 .text.GPS_close
                0x000000000800583e        0xa CMakeFiles/Project.elf.dir/Code/Src/GPS.c.obj
                0x000000000800583e                GPS_close
 .text.GPS_copy
                0x0000000008005848       0x5c CMakeFiles/Project.elf.dir/Code/Src/GPS_Usart.c.obj
                0x0000000008005848                GPS_copy
 .text.USART2_Init
                0x00000000080058a4       0xac CMakeFiles/Project.elf.dir/Code/Src/GPS_Usart.c.obj
                0x00000000080058a4                USART2_Init
 .text.USART2_IRQHandler
                0x0000000008005950       0x7c CMakeFiles/Project.elf.dir/Code/Src/GPS_Usart.c.obj
                0x0000000008005950                USART2_IRQHandler
 .text.USART2_SET
                0x00000000080059cc       0x10 CMakeFiles/Project.elf.dir/Code/Src/GPS_Usart.c.obj
                0x00000000080059cc                USART2_SET
 .text.I2C_Configuration
                0x00000000080059dc       0x80 CMakeFiles/Project.elf.dir/Code/Src/I2COLED.c.obj
                0x00000000080059dc                I2C_Configuration
 .text.I2C_WriteByte
                0x0000000008005a5c       0x80 CMakeFiles/Project.elf.dir/Code/Src/I2COLED.c.obj
                0x0000000008005a5c                I2C_WriteByte
 .text.WriteCmd
                0x0000000008005adc        0xc CMakeFiles/Project.elf.dir/Code/Src/I2COLED.c.obj
                0x0000000008005adc                WriteCmd
 .text.WriteDat
                0x0000000008005ae8        0xc CMakeFiles/Project.elf.dir/Code/Src/I2COLED.c.obj
                0x0000000008005ae8                WriteDat
 .text.I2COLED_SetPos
                0x0000000008005af4       0x26 CMakeFiles/Project.elf.dir/Code/Src/I2COLED.c.obj
                0x0000000008005af4                I2COLED_SetPos
 .text.I2COLED_Fill
                0x0000000008005b1a       0x3c CMakeFiles/Project.elf.dir/Code/Src/I2COLED.c.obj
                0x0000000008005b1a                I2COLED_Fill
 .text.I2COLED_Init
                0x0000000008005b56       0xc2 CMakeFiles/Project.elf.dir/Code/Src/I2COLED.c.obj
                0x0000000008005b56                I2COLED_Init
 .text.I2COLED_Pow
                0x0000000008005c18       0x14 CMakeFiles/Project.elf.dir/Code/Src/I2COLED.c.obj
                0x0000000008005c18                I2COLED_Pow
 .text.I2COLED_ShowChar
                0x0000000008005c2c       0xa8 CMakeFiles/Project.elf.dir/Code/Src/I2COLED.c.obj
                0x0000000008005c2c                I2COLED_ShowChar
 .text.I2COLED_ShowHexNum
                0x0000000008005cd4       0xec CMakeFiles/Project.elf.dir/Code/Src/I2COLED.c.obj
                0x0000000008005cd4                I2COLED_ShowHexNum
 .text.NBIOT_copy
                0x0000000008005dc0       0x7c CMakeFiles/Project.elf.dir/Code/Src/NBIOT_Usart.c.obj
                0x0000000008005dc0                NBIOT_copy
 .text.USART1_Init
                0x0000000008005e3c       0xb8 CMakeFiles/Project.elf.dir/Code/Src/NBIOT_Usart.c.obj
                0x0000000008005e3c                USART1_Init
 .text.USART1_SendByte
                0x0000000008005ef4       0x1c CMakeFiles/Project.elf.dir/Code/Src/NBIOT_Usart.c.obj
                0x0000000008005ef4                USART1_SendByte
 .text.USART1_SendString
                0x0000000008005f10       0x24 CMakeFiles/Project.elf.dir/Code/Src/NBIOT_Usart.c.obj
                0x0000000008005f10                USART1_SendString
 .text.USART1_IRQHandler
                0x0000000008005f34       0x7c CMakeFiles/Project.elf.dir/Code/Src/NBIOT_Usart.c.obj
                0x0000000008005f34                USART1_IRQHandler
 .text.OLED_Init
                0x0000000008005fb0        0x8 CMakeFiles/Project.elf.dir/Code/Src/OLED.c.obj
                0x0000000008005fb0                OLED_Init
 .text.OLED_ShowChar
                0x0000000008005fb8       0x1c CMakeFiles/Project.elf.dir/Code/Src/OLED.c.obj
                0x0000000008005fb8                OLED_ShowChar
 .text.OLED_ShowString
                0x0000000008005fd4       0x22 CMakeFiles/Project.elf.dir/Code/Src/OLED.c.obj
                0x0000000008005fd4                OLED_ShowString
 .text.OLED_ShowHexNum
                0x0000000008005ff6       0x24 CMakeFiles/Project.elf.dir/Code/Src/OLED.c.obj
                0x0000000008005ff6                OLED_ShowHexNum
 *fill*         0x000000000800601a        0x2 
 .text.Onewrite_GPIO_Config
                0x000000000800601c       0x38 CMakeFiles/Project.elf.dir/Code/Src/OneWrite.c.obj
                0x000000000800601c                Onewrite_GPIO_Config
 .text.Onewrite_Mode_IPU
                0x0000000008006054       0x24 CMakeFiles/Project.elf.dir/Code/Src/OneWrite.c.obj
                0x0000000008006054                Onewrite_Mode_IPU
 .text.Onewrite_Mode_Out
                0x0000000008006078       0x28 CMakeFiles/Project.elf.dir/Code/Src/OneWrite.c.obj
                0x0000000008006078                Onewrite_Mode_Out
 .text.Onewrite_Rst
                0x00000000080060a0       0x2c CMakeFiles/Project.elf.dir/Code/Src/OneWrite.c.obj
                0x00000000080060a0                Onewrite_Rst
 .text.Onewrite_Answer_Check
                0x00000000080060cc       0x58 CMakeFiles/Project.elf.dir/Code/Src/OneWrite.c.obj
                0x00000000080060cc                Onewrite_Answer_Check
 .text.Onewrite_Read_Bit
                0x0000000008006124       0x44 CMakeFiles/Project.elf.dir/Code/Src/OneWrite.c.obj
                0x0000000008006124                Onewrite_Read_Bit
 .text.Onewrite_Read_Byte
                0x0000000008006168       0x1e CMakeFiles/Project.elf.dir/Code/Src/OneWrite.c.obj
                0x0000000008006168                Onewrite_Read_Byte
 *fill*         0x0000000008006186        0x2 
 .text.Onewrite_Write_Byte
                0x0000000008006188       0x64 CMakeFiles/Project.elf.dir/Code/Src/OneWrite.c.obj
                0x0000000008006188                Onewrite_Write_Byte
 .text.Onewrite_Init
                0x00000000080061ec       0x10 CMakeFiles/Project.elf.dir/Code/Src/OneWrite.c.obj
                0x00000000080061ec                Onewrite_Init
 *fill*         0x00000000080061fc        0x4 
 .text.Onewrite_Get_Temp
                0x0000000008006200       0x9c CMakeFiles/Project.elf.dir/Code/Src/OneWrite.c.obj
                0x0000000008006200                Onewrite_Get_Temp
 .text.Usart3_Init
                0x000000000800629c       0xb8 CMakeFiles/Project.elf.dir/Code/Src/Usart.c.obj
                0x000000000800629c                Usart3_Init
 .text._write   0x0000000008006354       0x34 CMakeFiles/Project.elf.dir/Code/Src/Usart.c.obj
                0x0000000008006354                _write
 .text.NBIOT_restart_init
                0x0000000008006388       0x34 CMakeFiles/Project.elf.dir/Code/Src/nbiot.c.obj
                0x0000000008006388                NBIOT_restart_init
 .text.nbiot_restart
                0x00000000080063bc       0x28 CMakeFiles/Project.elf.dir/Code/Src/nbiot.c.obj
                0x00000000080063bc                nbiot_restart
 .text.NB_IoT_ack_chack
                0x00000000080063e4       0x54 CMakeFiles/Project.elf.dir/Code/Src/nbiot.c.obj
                0x00000000080063e4                NB_IoT_ack_chack
 .text.NB_IoT_conect_send
                0x0000000008006438       0x68 CMakeFiles/Project.elf.dir/Code/Src/nbiot.c.obj
                0x0000000008006438                NB_IoT_conect_send
 .text.nbiot_init
                0x00000000080064a0       0x20 CMakeFiles/Project.elf.dir/Code/Src/nbiot.c.obj
                0x00000000080064a0                nbiot_init
 .text.NVIC_PriorityGroupConfig
                0x00000000080064c0       0x14 CMakeFiles/Project.elf.dir/Lib/Src/misc.c.obj
                0x00000000080064c0                NVIC_PriorityGroupConfig
 .text.NVIC_Init
                0x00000000080064d4       0x64 CMakeFiles/Project.elf.dir/Lib/Src/misc.c.obj
                0x00000000080064d4                NVIC_Init
 .text.GPIO_Init
                0x0000000008006538       0xb2 CMakeFiles/Project.elf.dir/Lib/Src/stm32f10x_gpio.c.obj
                0x0000000008006538                GPIO_Init
 .text.GPIO_ReadInputDataBit
                0x00000000080065ea        0xe CMakeFiles/Project.elf.dir/Lib/Src/stm32f10x_gpio.c.obj
                0x00000000080065ea                GPIO_ReadInputDataBit
 .text.GPIO_SetBits
                0x00000000080065f8        0x4 CMakeFiles/Project.elf.dir/Lib/Src/stm32f10x_gpio.c.obj
                0x00000000080065f8                GPIO_SetBits
 .text.GPIO_ResetBits
                0x00000000080065fc        0x4 CMakeFiles/Project.elf.dir/Lib/Src/stm32f10x_gpio.c.obj
                0x00000000080065fc                GPIO_ResetBits
 .text.I2C_DeInit
                0x0000000008006600       0x38 CMakeFiles/Project.elf.dir/Lib/Src/stm32f10x_i2c.c.obj
                0x0000000008006600                I2C_DeInit
 .text.I2C_Init
                0x0000000008006638       0xdc CMakeFiles/Project.elf.dir/Lib/Src/stm32f10x_i2c.c.obj
                0x0000000008006638                I2C_Init
 .text.I2C_Cmd  0x0000000008006714       0x1c CMakeFiles/Project.elf.dir/Lib/Src/stm32f10x_i2c.c.obj
                0x0000000008006714                I2C_Cmd
 .text.I2C_GenerateSTART
                0x0000000008006730       0x1c CMakeFiles/Project.elf.dir/Lib/Src/stm32f10x_i2c.c.obj
                0x0000000008006730                I2C_GenerateSTART
 .text.I2C_GenerateSTOP
                0x000000000800674c       0x1c CMakeFiles/Project.elf.dir/Lib/Src/stm32f10x_i2c.c.obj
                0x000000000800674c                I2C_GenerateSTOP
 .text.I2C_SendData
                0x0000000008006768        0x4 CMakeFiles/Project.elf.dir/Lib/Src/stm32f10x_i2c.c.obj
                0x0000000008006768                I2C_SendData
 .text.I2C_Send7bitAddress
                0x000000000800676c       0x12 CMakeFiles/Project.elf.dir/Lib/Src/stm32f10x_i2c.c.obj
                0x000000000800676c                I2C_Send7bitAddress
 .text.I2C_CheckEvent
                0x000000000800677e       0x1c CMakeFiles/Project.elf.dir/Lib/Src/stm32f10x_i2c.c.obj
                0x000000000800677e                I2C_CheckEvent
 .text.I2C_GetFlagStatus
                0x000000000800679a       0x38 CMakeFiles/Project.elf.dir/Lib/Src/stm32f10x_i2c.c.obj
                0x000000000800679a                I2C_GetFlagStatus
 *fill*         0x00000000080067d2        0x2 
 .text.RCC_GetClocksFreq
                0x00000000080067d4       0xbc CMakeFiles/Project.elf.dir/Lib/Src/stm32f10x_rcc.c.obj
                0x00000000080067d4                RCC_GetClocksFreq
 .text.RCC_APB2PeriphClockCmd
                0x0000000008006890       0x1c CMakeFiles/Project.elf.dir/Lib/Src/stm32f10x_rcc.c.obj
                0x0000000008006890                RCC_APB2PeriphClockCmd
 .text.RCC_APB1PeriphClockCmd
                0x00000000080068ac       0x1c CMakeFiles/Project.elf.dir/Lib/Src/stm32f10x_rcc.c.obj
                0x00000000080068ac                RCC_APB1PeriphClockCmd
 .text.RCC_APB1PeriphResetCmd
                0x00000000080068c8       0x1c CMakeFiles/Project.elf.dir/Lib/Src/stm32f10x_rcc.c.obj
                0x00000000080068c8                RCC_APB1PeriphResetCmd
 .text.USART_Init
                0x00000000080068e4       0xc4 CMakeFiles/Project.elf.dir/Lib/Src/stm32f10x_usart.c.obj
                0x00000000080068e4                USART_Init
 .text.USART_Cmd
                0x00000000080069a8       0x1c CMakeFiles/Project.elf.dir/Lib/Src/stm32f10x_usart.c.obj
                0x00000000080069a8                USART_Cmd
 .text.USART_ITConfig
                0x00000000080069c4       0x36 CMakeFiles/Project.elf.dir/Lib/Src/stm32f10x_usart.c.obj
                0x00000000080069c4                USART_ITConfig
 .text.USART_SendData
                0x00000000080069fa        0x8 CMakeFiles/Project.elf.dir/Lib/Src/stm32f10x_usart.c.obj
                0x00000000080069fa                USART_SendData
 .text.USART_ReceiveData
                0x0000000008006a02        0x8 CMakeFiles/Project.elf.dir/Lib/Src/stm32f10x_usart.c.obj
                0x0000000008006a02                USART_ReceiveData
 .text.USART_GetFlagStatus
                0x0000000008006a0a        0xe CMakeFiles/Project.elf.dir/Lib/Src/stm32f10x_usart.c.obj
                0x0000000008006a0a                USART_GetFlagStatus
 .text.USART_GetITStatus
                0x0000000008006a18       0x4a CMakeFiles/Project.elf.dir/Lib/Src/stm32f10x_usart.c.obj
                0x0000000008006a18                USART_GetITStatus
 .text.USART_ClearITPendingBit
                0x0000000008006a62       0x10 CMakeFiles/Project.elf.dir/Lib/Src/stm32f10x_usart.c.obj
                0x0000000008006a62                USART_ClearITPendingBit
 *fill*         0x0000000008006a72        0x2 
 .text.Reset_Handler
                0x0000000008006a74       0x44 CMakeFiles/Project.elf.dir/Project/Code-Cmake/startup_stm32f10x_md.s.obj
                0x0000000008006a74                Reset_Handler
 .text.Default_Handler
                0x0000000008006ab8        0x2 CMakeFiles/Project.elf.dir/Project/Code-Cmake/startup_stm32f10x_md.s.obj
                0x0000000008006ab8                EXTI2_IRQHandler
                0x0000000008006ab8                TIM1_CC_IRQHandler
                0x0000000008006ab8                PVD_IRQHandler
                0x0000000008006ab8                EXTI3_IRQHandler
                0x0000000008006ab8                EXTI0_IRQHandler
                0x0000000008006ab8                I2C2_EV_IRQHandler
                0x0000000008006ab8                ADC1_2_IRQHandler
                0x0000000008006ab8                SPI1_IRQHandler
                0x0000000008006ab8                TAMPER_IRQHandler
                0x0000000008006ab8                DMA1_Channel4_IRQHandler
                0x0000000008006ab8                USART3_IRQHandler
                0x0000000008006ab8                RTC_IRQHandler
                0x0000000008006ab8                DMA1_Channel7_IRQHandler
                0x0000000008006ab8                CAN1_RX1_IRQHandler
                0x0000000008006ab8                TIM4_IRQHandler
                0x0000000008006ab8                I2C1_EV_IRQHandler
                0x0000000008006ab8                DMA1_Channel6_IRQHandler
                0x0000000008006ab8                TIM3_IRQHandler
                0x0000000008006ab8                RCC_IRQHandler
                0x0000000008006ab8                TIM1_TRG_COM_IRQHandler
                0x0000000008006ab8                DMA1_Channel1_IRQHandler
                0x0000000008006ab8                Default_Handler
                0x0000000008006ab8                EXTI15_10_IRQHandler
                0x0000000008006ab8                EXTI9_5_IRQHandler
                0x0000000008006ab8                SPI2_IRQHandler
                0x0000000008006ab8                DMA1_Channel5_IRQHandler
                0x0000000008006ab8                EXTI4_IRQHandler
                0x0000000008006ab8                USB_LP_CAN1_RX0_IRQHandler
                0x0000000008006ab8                USB_HP_CAN1_TX_IRQHandler
                0x0000000008006ab8                DMA1_Channel3_IRQHandler
                0x0000000008006ab8                TIM1_UP_IRQHandler
                0x0000000008006ab8                WWDG_IRQHandler
                0x0000000008006ab8                TIM2_IRQHandler
                0x0000000008006ab8                TIM1_BRK_IRQHandler
                0x0000000008006ab8                EXTI1_IRQHandler
                0x0000000008006ab8                RTCAlarm_IRQHandler
                0x0000000008006ab8                I2C2_ER_IRQHandler
                0x0000000008006ab8                DMA1_Channel2_IRQHandler
                0x0000000008006ab8                CAN1_SCE_IRQHandler
                0x0000000008006ab8                FLASH_IRQHandler
                0x0000000008006ab8                I2C1_ER_IRQHandler
                0x0000000008006ab8                USBWakeUp_IRQHandler
 .text.NMI_Handler
                0x0000000008006aba        0x2 CMakeFiles/Project.elf.dir/Start/Src/stm32f10x_it.c.obj
                0x0000000008006aba                NMI_Handler
 .text.HardFault_Handler
                0x0000000008006abc        0x2 CMakeFiles/Project.elf.dir/Start/Src/stm32f10x_it.c.obj
                0x0000000008006abc                HardFault_Handler
 .text.MemManage_Handler
                0x0000000008006abe        0x2 CMakeFiles/Project.elf.dir/Start/Src/stm32f10x_it.c.obj
                0x0000000008006abe                MemManage_Handler
 .text.BusFault_Handler
                0x0000000008006ac0        0x2 CMakeFiles/Project.elf.dir/Start/Src/stm32f10x_it.c.obj
                0x0000000008006ac0                BusFault_Handler
 .text.UsageFault_Handler
                0x0000000008006ac2        0x2 CMakeFiles/Project.elf.dir/Start/Src/stm32f10x_it.c.obj
                0x0000000008006ac2                UsageFault_Handler
 .text.SVC_Handler
                0x0000000008006ac4        0x2 CMakeFiles/Project.elf.dir/Start/Src/stm32f10x_it.c.obj
                0x0000000008006ac4                SVC_Handler
 .text.DebugMon_Handler
                0x0000000008006ac6        0x2 CMakeFiles/Project.elf.dir/Start/Src/stm32f10x_it.c.obj
                0x0000000008006ac6                DebugMon_Handler
 .text.PendSV_Handler
                0x0000000008006ac8        0x2 CMakeFiles/Project.elf.dir/Start/Src/stm32f10x_it.c.obj
                0x0000000008006ac8                PendSV_Handler
 .text.SysTick_Handler
                0x0000000008006aca        0x2 CMakeFiles/Project.elf.dir/Start/Src/stm32f10x_it.c.obj
                0x0000000008006aca                SysTick_Handler
 .text.SetSysClockTo72
                0x0000000008006acc       0xc4 CMakeFiles/Project.elf.dir/Start/Src/system_stm32f10x.c.obj
 .text.SetSysClock
                0x0000000008006b90        0x8 CMakeFiles/Project.elf.dir/Start/Src/system_stm32f10x.c.obj
 .text.SystemInit
                0x0000000008006b98       0x50 CMakeFiles/Project.elf.dir/Start/Src/system_stm32f10x.c.obj
                0x0000000008006b98                SystemInit
 .text.Delay_us
                0x0000000008006be8       0x2a CMakeFiles/Project.elf.dir/System/Src/Delay.c.obj
                0x0000000008006be8                Delay_us
 .text.Delay_ms
                0x0000000008006c12       0x16 CMakeFiles/Project.elf.dir/System/Src/Delay.c.obj
                0x0000000008006c12                Delay_ms
 .text.Delay_s  0x0000000008006c28       0x16 CMakeFiles/Project.elf.dir/System/Src/Delay.c.obj
                0x0000000008006c28                Delay_s
 *fill*         0x0000000008006c3e        0x2 
 .text.main     0x0000000008006c40       0xf4 CMakeFiles/Project.elf.dir/User/main.c.obj
                0x0000000008006c40                main
 *(.glue_7)
 .glue_7        0x0000000008006d34        0x0 linker stubs
 *(.glue_7t)
 .glue_7t       0x0000000008006d34        0x0 linker stubs
 *(.eh_frame)
 .eh_frame      0x0000000008006d34        0x0 /usr/lib/gcc/arm-none-eabi/10.3.1/thumb/v7-m/nofp/crtbegin.o
 *(.init)
 .init          0x0000000008006d34        0x4 /usr/lib/gcc/arm-none-eabi/10.3.1/thumb/v7-m/nofp/crti.o
                0x0000000008006d34                _init
 .init          0x0000000008006d38        0x8 /usr/lib/gcc/arm-none-eabi/10.3.1/thumb/v7-m/nofp/crtn.o
 *(.fini)
 .fini          0x0000000008006d40        0x4 /usr/lib/gcc/arm-none-eabi/10.3.1/thumb/v7-m/nofp/crti.o
                0x0000000008006d40                _fini
 .fini          0x0000000008006d44        0x8 /usr/lib/gcc/arm-none-eabi/10.3.1/thumb/v7-m/nofp/crtn.o
                0x0000000008006d4c                . = ALIGN (0x4)
                0x0000000008006d4c                _etext = .

.vfp11_veneer   0x0000000008006d4c        0x0
 .vfp11_veneer  0x0000000008006d4c        0x0 linker stubs

.v4_bx          0x0000000008006d4c        0x0
 .v4_bx         0x0000000008006d4c        0x0 linker stubs

.iplt           0x0000000008006d4c        0x0
 .iplt          0x0000000008006d4c        0x0 /usr/lib/gcc/arm-none-eabi/10.3.1/thumb/v7-m/nofp/crtbegin.o

.rodata         0x0000000008006d50      0xcf8
                0x0000000008006d50                . = ALIGN (0x4)
 *(.rodata)
 .rodata        0x0000000008006d50        0x4 /usr/lib/gcc/arm-none-eabi/10.3.1/../../../arm-none-eabi/lib/thumb/v7-m/nofp/libc_nano.a(lib_a-impure.o)
                0x0000000008006d50                _global_impure_ptr
 .rodata        0x0000000008006d54       0x60 /usr/lib/gcc/arm-none-eabi/10.3.1/../../../arm-none-eabi/lib/thumb/v7-m/nofp/libc_nano.a(lib_a-findfp.o)
                0x0000000008006d54                __sf_fake_stderr
                0x0000000008006d74                __sf_fake_stdout
                0x0000000008006d94                __sf_fake_stdin
 *fill*         0x0000000008006db4        0x4 
 .rodata        0x0000000008006db8      0x128 /usr/lib/gcc/arm-none-eabi/10.3.1/../../../arm-none-eabi/lib/thumb/v7-m/nofp/libc_nano.a(lib_a-mprec.o)
                0x0000000008006dc8                __mprec_tens
                0x0000000008006e90                __mprec_tinytens
                0x0000000008006eb8                __mprec_bigtens
 .rodata        0x0000000008006ee0      0x101 /usr/lib/gcc/arm-none-eabi/10.3.1/../../../arm-none-eabi/lib/thumb/v7-m/nofp/libc_nano.a(lib_a-ctype_.o)
                0x0000000008006ee0                _ctype_
 *(.rodata*)
 *fill*         0x0000000008006fe1        0x3 
 .rodata.GPS_copy.str1.4
                0x0000000008006fe4       0x18 CMakeFiles/Project.elf.dir/Code/Src/GPS_Usart.c.obj
 .rodata.F6x8   0x0000000008006ffc      0x228 CMakeFiles/Project.elf.dir/Code/Src/I2COLED.c.obj
                0x0000000008006ffc                F6x8
 .rodata.F8X16  0x0000000008007224      0x5f0 CMakeFiles/Project.elf.dir/Code/Src/I2COLED.c.obj
                0x0000000008007224                F8X16
 .rodata.NBIOT_copy.str1.4
                0x0000000008007814       0x14 CMakeFiles/Project.elf.dir/Code/Src/NBIOT_Usart.c.obj
 .rodata.NB_IotConect.str1.4
                0x0000000008007828        0xf CMakeFiles/Project.elf.dir/Code/Src/nbiot.c.obj
 *fill*         0x0000000008007837        0x1 
 .rodata.NB_IoT_conect_send.str1.4
                0x0000000008007838       0x55 CMakeFiles/Project.elf.dir/Code/Src/nbiot.c.obj
 .rodata.nbiot_init.str1.4
                0x000000000800788d        0x4 CMakeFiles/Project.elf.dir/Code/Src/nbiot.c.obj
 *fill*         0x000000000800788d        0x3 
 .rodata.main.str1.4
                0x0000000008007890       0x77 CMakeFiles/Project.elf.dir/User/main.c.obj
 *fill*         0x0000000008007907        0x1 
 .rodata.str1.4
                0x0000000008007908       0x10 /usr/lib/gcc/arm-none-eabi/10.3.1/../../../arm-none-eabi/lib/thumb/v7-m/nofp/libc_nano.a(lib_a-nano-vfprintf_float.o)
                                         0x12 (size before relaxing)
 .rodata.str1.4
                0x0000000008007918       0x25 /usr/lib/gcc/arm-none-eabi/10.3.1/../../../arm-none-eabi/lib/thumb/v7-m/nofp/libc_nano.a(lib_a-nano-vfprintf_i.o)
 *fill*         0x000000000800793d        0x3 
 .rodata.str1.4
                0x0000000008007940       0x6d /usr/lib/gcc/arm-none-eabi/10.3.1/../../../arm-none-eabi/lib/thumb/v7-m/nofp/libc_nano.a(lib_a-dtoa.o)
                                         0x71 (size before relaxing)
 *fill*         0x00000000080079ad        0x3 
 .rodata.str1.4
                0x00000000080079b0       0x33 /usr/lib/gcc/arm-none-eabi/10.3.1/../../../arm-none-eabi/lib/thumb/v7-m/nofp/libc_nano.a(lib_a-mprec.o)
                                         0x5d (size before relaxing)
 *fill*         0x00000000080079e3        0x1 
 .rodata.str1.4
                0x00000000080079e4       0x13 /usr/lib/gcc/arm-none-eabi/10.3.1/../../../arm-none-eabi/lib/thumb/v7-m/nofp/libc_nano.a(lib_a-nano-svfprintf.o)
 .rodata.str1.4
                0x00000000080079f7       0x13 /usr/lib/gcc/arm-none-eabi/10.3.1/../../../arm-none-eabi/lib/thumb/v7-m/nofp/libc_nano.a(lib_a-nano-vfprintf.o)
 *fill*         0x00000000080079f7        0x1 
 .rodata.str1.4
                0x00000000080079f8       0x3f /usr/lib/gcc/arm-none-eabi/10.3.1/../../../arm-none-eabi/lib/thumb/v7-m/nofp/libc_nano.a(lib_a-assert.o)
                                         0x43 (size before relaxing)
 *fill*         0x0000000008007a37        0x1 
 .rodata.str1.4
                0x0000000008007a38        0xe /usr/lib/gcc/arm-none-eabi/10.3.1/../../../arm-none-eabi/lib/thumb/v7-m/nofp/libc_nano.a(lib_a-locale.o)
                                         0x12 (size before relaxing)
                0x0000000008007a48                . = ALIGN (0x4)
 *fill*         0x0000000008007a46        0x2 

.rel.dyn        0x0000000008007a48        0x0
 .rel.iplt      0x0000000008007a48        0x0 /usr/lib/gcc/arm-none-eabi/10.3.1/thumb/v7-m/nofp/crtbegin.o

.ARM.extab
 *(.ARM.extab* .gnu.linkonce.armextab.*)

.ARM            0x0000000008007a48        0x0
                0x0000000008007a48                __exidx_start = .
 *(.ARM.exidx*)
                0x0000000008007a48                __exidx_end = .

.preinit_array  0x0000000008007a48        0x0
                0x0000000008007a48                PROVIDE (__preinit_array_start = .)
 *(.preinit_array*)
                0x0000000008007a48                PROVIDE (__preinit_array_end = .)

.init_array     0x0000000008007a48        0x4
                0x0000000008007a48                PROVIDE (__init_array_start = .)
 *(SORT_BY_NAME(.init_array.*))
 *(.init_array*)
 .init_array    0x0000000008007a48        0x4 /usr/lib/gcc/arm-none-eabi/10.3.1/thumb/v7-m/nofp/crtbegin.o
                0x0000000008007a4c                PROVIDE (__init_array_end = .)

.fini_array     0x0000000008007a4c        0x4
                0x0000000008007a4c                PROVIDE (__fini_array_start = .)
 *(SORT_BY_NAME(.fini_array.*))
 *(.fini_array*)
 .fini_array    0x0000000008007a4c        0x4 /usr/lib/gcc/arm-none-eabi/10.3.1/thumb/v7-m/nofp/crtbegin.o
                0x0000000008007a50                PROVIDE (__fini_array_end = .)
                0x0000000008007a50                _sidata = LOADADDR (.data)

.data           0x0000000020000000      0x1e4 load address 0x0000000008007a50
                0x0000000020000000                . = ALIGN (0x4)
                0x0000000020000000                _sdata = .
 *(.data)
 .data          0x0000000020000000       0x64 /usr/lib/gcc/arm-none-eabi/10.3.1/../../../arm-none-eabi/lib/thumb/v7-m/nofp/libc_nano.a(lib_a-impure.o)
                0x0000000020000000                _impure_ptr
 .data          0x0000000020000064      0x16c /usr/lib/gcc/arm-none-eabi/10.3.1/../../../arm-none-eabi/lib/thumb/v7-m/nofp/libc_nano.a(lib_a-locale.o)
                0x0000000020000064                __global_locale
 *(.data*)
 .data.ADCPrescTable
                0x00000000200001d0        0x4 CMakeFiles/Project.elf.dir/Lib/Src/stm32f10x_rcc.c.obj
 .data.APBAHBPrescTable
                0x00000000200001d4       0x10 CMakeFiles/Project.elf.dir/Lib/Src/stm32f10x_rcc.c.obj
                0x00000000200001e4                . = ALIGN (0x4)
                0x00000000200001e4                _edata = .

.tm_clone_table
                0x00000000200001e4        0x0 load address 0x0000000008007c34
 .tm_clone_table
                0x00000000200001e4        0x0 /usr/lib/gcc/arm-none-eabi/10.3.1/thumb/v7-m/nofp/crtbegin.o
 .tm_clone_table
                0x00000000200001e4        0x0 /usr/lib/gcc/arm-none-eabi/10.3.1/thumb/v7-m/nofp/crtend.o

.igot.plt       0x00000000200001e4        0x0 load address 0x0000000008007c34
 .igot.plt      0x00000000200001e4        0x0 /usr/lib/gcc/arm-none-eabi/10.3.1/thumb/v7-m/nofp/crtbegin.o
                0x00000000200001e4                . = ALIGN (0x4)

.bss            0x00000000200001e4      0x6a0 load address 0x0000000008007c34
                0x00000000200001e4                _sbss = .
                0x00000000200001e4                __bss_start__ = _sbss
 *(.bss)
 .bss           0x00000000200001e4       0x1c /usr/lib/gcc/arm-none-eabi/10.3.1/thumb/v7-m/nofp/crtbegin.o
 .bss           0x0000000020000200        0x8 /usr/lib/gcc/arm-none-eabi/10.3.1/../../../arm-none-eabi/lib/thumb/v7-m/nofp/libc_nano.a(lib_a-nano-mallocr.o)
                0x0000000020000200                __malloc_free_list
                0x0000000020000204                __malloc_sbrk_start
 .bss           0x0000000020000208        0x4 /usr/lib/gcc/arm-none-eabi/10.3.1/../../../arm-none-eabi/lib/thumb/v7-m/nofp/libc_nano.a(lib_a-reent.o)
                0x0000000020000208                errno
 .bss           0x000000002000020c        0x4 /usr/lib/gcc/arm-none-eabi/10.3.1/../../../arm-none-eabi/lib/thumb/v7-m/nofp/libnosys.a(sbrk.o)
 *(.bss*)
 .bss.GNGGA_Packet
                0x0000000020000210       0x64 CMakeFiles/Project.elf.dir/Code/Src/GPS_Usart.c.obj
                0x0000000020000210                GNGGA_Packet
 .bss.GNGLL_Packet
                0x0000000020000274       0x64 CMakeFiles/Project.elf.dir/Code/Src/GPS_Usart.c.obj
                0x0000000020000274                GNGLL_Packet
 .bss.GNZDA_Packet
                0x00000000200002d8       0x64 CMakeFiles/Project.elf.dir/Code/Src/GPS_Usart.c.obj
                0x00000000200002d8                GNZDA_Packet
 .bss.RxState.1
                0x000000002000033c        0x1 CMakeFiles/Project.elf.dir/Code/Src/GPS_Usart.c.obj
 .bss.USART2_RxFlag
                0x000000002000033d        0x1 CMakeFiles/Project.elf.dir/Code/Src/GPS_Usart.c.obj
                0x000000002000033d                USART2_RxFlag
 *fill*         0x000000002000033e        0x2 
 .bss.USART2_RxPacket
                0x0000000020000340       0x64 CMakeFiles/Project.elf.dir/Code/Src/GPS_Usart.c.obj
                0x0000000020000340                USART2_RxPacket
 .bss.pRxPacket.0
                0x00000000200003a4        0x1 CMakeFiles/Project.elf.dir/Code/Src/GPS_Usart.c.obj
 *fill*         0x00000000200003a5        0x3 
 .bss.CEREG_Packet
                0x00000000200003a8        0xa CMakeFiles/Project.elf.dir/Code/Src/NBIOT_Usart.c.obj
                0x00000000200003a8                CEREG_Packet
 *fill*         0x00000000200003b2        0x2 
 .bss.CIMI_Packet
                0x00000000200003b4       0x64 CMakeFiles/Project.elf.dir/Code/Src/NBIOT_Usart.c.obj
                0x00000000200003b4                CIMI_Packet
 .bss.CSQ_Packet
                0x0000000020000418        0xa CMakeFiles/Project.elf.dir/Code/Src/NBIOT_Usart.c.obj
                0x0000000020000418                CSQ_Packet
 *fill*         0x0000000020000422        0x2 
 .bss.IP_Packet
                0x0000000020000424        0xa CMakeFiles/Project.elf.dir/Code/Src/NBIOT_Usart.c.obj
                0x0000000020000424                IP_Packet
 .bss.RxState.1
                0x000000002000042e        0x1 CMakeFiles/Project.elf.dir/Code/Src/NBIOT_Usart.c.obj
 .bss.USART1_RxFlag
                0x000000002000042f        0x1 CMakeFiles/Project.elf.dir/Code/Src/NBIOT_Usart.c.obj
                0x000000002000042f                USART1_RxFlag
 .bss.USART1_RxPacket
                0x0000000020000430       0x64 CMakeFiles/Project.elf.dir/Code/Src/NBIOT_Usart.c.obj
                0x0000000020000430                USART1_RxPacket
 .bss.pRxPacket.0
                0x0000000020000494        0x1 CMakeFiles/Project.elf.dir/Code/Src/NBIOT_Usart.c.obj
 .bss.ERROR_FLAG
                0x0000000020000495        0x1 CMakeFiles/Project.elf.dir/Code/Src/nbiot.c.obj
                0x0000000020000495                ERROR_FLAG
 *fill*         0x0000000020000496        0x2 
 .bss.DATA      0x0000000020000498      0x1f4 CMakeFiles/Project.elf.dir/User/main.c.obj
                0x0000000020000498                DATA
 .bss.SEND_DATA
                0x000000002000068c      0x1f4 CMakeFiles/Project.elf.dir/User/main.c.obj
                0x000000002000068c                SEND_DATA
 .bss.temp      0x0000000020000880        0x4 CMakeFiles/Project.elf.dir/User/main.c.obj
                0x0000000020000880                temp
 *(COMMON)
                0x0000000020000884                . = ALIGN (0x4)
                0x0000000020000884                _ebss = .
                0x0000000020000884                __bss_end__ = _ebss

._user_heap_stack
                0x0000000020000884      0x604 load address 0x0000000008007c34
                0x0000000020000888                . = ALIGN (0x8)
 *fill*         0x0000000020000884        0x4 
                0x0000000020000888                PROVIDE (end = .)
                [!provide]                        PROVIDE (_end = .)
                0x0000000020000a88                . = (. + _Min_Heap_Size)
 *fill*         0x0000000020000888      0x200 
                0x0000000020000e88                . = (. + _Min_Stack_Size)
 *fill*         0x0000000020000a88      0x400 
                0x0000000020000e88                . = ALIGN (0x8)

/DISCARD/
 libc.a(*)
 libm.a(*)
 libgcc.a(*)

.ARM.attributes
                0x0000000000000000       0x29
 *(.ARM.attributes)
 .ARM.attributes
                0x0000000000000000       0x1d /usr/lib/gcc/arm-none-eabi/10.3.1/thumb/v7-m/nofp/crti.o
 .ARM.attributes
                0x000000000000001d       0x2d /usr/lib/gcc/arm-none-eabi/10.3.1/thumb/v7-m/nofp/crtbegin.o
 .ARM.attributes
                0x000000000000004a       0x2d CMakeFiles/Project.elf.dir/Code/Src/GPS.c.obj
 .ARM.attributes
                0x0000000000000077       0x2d CMakeFiles/Project.elf.dir/Code/Src/GPS_Usart.c.obj
 .ARM.attributes
                0x00000000000000a4       0x2d CMakeFiles/Project.elf.dir/Code/Src/I2COLED.c.obj
 .ARM.attributes
                0x00000000000000d1       0x2d CMakeFiles/Project.elf.dir/Code/Src/NBIOT_Usart.c.obj
 .ARM.attributes
                0x00000000000000fe       0x2d CMakeFiles/Project.elf.dir/Code/Src/OLED.c.obj
 .ARM.attributes
                0x000000000000012b       0x2d CMakeFiles/Project.elf.dir/Code/Src/OneWrite.c.obj
 .ARM.attributes
                0x0000000000000158       0x2d CMakeFiles/Project.elf.dir/Code/Src/Usart.c.obj
 .ARM.attributes
                0x0000000000000185       0x2d CMakeFiles/Project.elf.dir/Code/Src/nbiot.c.obj
 .ARM.attributes
                0x00000000000001b2       0x2d CMakeFiles/Project.elf.dir/Lib/Src/misc.c.obj
 .ARM.attributes
                0x00000000000001df       0x2d CMakeFiles/Project.elf.dir/Lib/Src/stm32f10x_gpio.c.obj
 .ARM.attributes
                0x000000000000020c       0x2d CMakeFiles/Project.elf.dir/Lib/Src/stm32f10x_i2c.c.obj
 .ARM.attributes
                0x0000000000000239       0x2d CMakeFiles/Project.elf.dir/Lib/Src/stm32f10x_rcc.c.obj
 .ARM.attributes
                0x0000000000000266       0x2d CMakeFiles/Project.elf.dir/Lib/Src/stm32f10x_usart.c.obj
 .ARM.attributes
                0x0000000000000293       0x21 CMakeFiles/Project.elf.dir/Project/Code-Cmake/startup_stm32f10x_md.s.obj
 .ARM.attributes
                0x00000000000002b4       0x2d CMakeFiles/Project.elf.dir/Start/Src/stm32f10x_it.c.obj
 .ARM.attributes
                0x00000000000002e1       0x2d CMakeFiles/Project.elf.dir/Start/Src/system_stm32f10x.c.obj
 .ARM.attributes
                0x000000000000030e       0x2d CMakeFiles/Project.elf.dir/System/Src/Delay.c.obj
 .ARM.attributes
                0x000000000000033b       0x2d CMakeFiles/Project.elf.dir/User/main.c.obj
 .ARM.attributes
                0x0000000000000368       0x1d /usr/lib/gcc/arm-none-eabi/10.3.1/thumb/v7-m/nofp/libgcc.a(_arm_addsubdf3.o)
 .ARM.attributes
                0x0000000000000385       0x1d /usr/lib/gcc/arm-none-eabi/10.3.1/thumb/v7-m/nofp/libgcc.a(_arm_muldivdf3.o)
 .ARM.attributes
                0x00000000000003a2       0x1d /usr/lib/gcc/arm-none-eabi/10.3.1/thumb/v7-m/nofp/libgcc.a(_arm_truncdfsf2.o)
 .ARM.attributes
                0x00000000000003bf       0x1d /usr/lib/gcc/arm-none-eabi/10.3.1/thumb/v7-m/nofp/libgcc.a(_arm_addsubsf3.o)
 .ARM.attributes
                0x00000000000003dc       0x2d /usr/lib/gcc/arm-none-eabi/10.3.1/../../../arm-none-eabi/lib/thumb/v7-m/nofp/libc_nano.a(lib_a-impure.o)
 .ARM.attributes
                0x0000000000000409       0x2d /usr/lib/gcc/arm-none-eabi/10.3.1/../../../arm-none-eabi/lib/thumb/v7-m/nofp/libc_nano.a(lib_a-memset.o)
 .ARM.attributes
                0x0000000000000436       0x2d /usr/lib/gcc/arm-none-eabi/10.3.1/../../../arm-none-eabi/lib/thumb/v7-m/nofp/libc_nano.a(lib_a-nano-vfprintf_float.o)
 .ARM.attributes
                0x0000000000000463       0x2d /usr/lib/gcc/arm-none-eabi/10.3.1/../../../arm-none-eabi/lib/thumb/v7-m/nofp/libc_nano.a(lib_a-nano-vfprintf_i.o)
 .ARM.attributes
                0x0000000000000490       0x2d /usr/lib/gcc/arm-none-eabi/10.3.1/../../../arm-none-eabi/lib/thumb/v7-m/nofp/libc_nano.a(lib_a-printf.o)
 .ARM.attributes
                0x00000000000004bd       0x2d /usr/lib/gcc/arm-none-eabi/10.3.1/../../../arm-none-eabi/lib/thumb/v7-m/nofp/libc_nano.a(lib_a-puts.o)
 .ARM.attributes
                0x00000000000004ea       0x2d /usr/lib/gcc/arm-none-eabi/10.3.1/../../../arm-none-eabi/lib/thumb/v7-m/nofp/libc_nano.a(lib_a-sprintf.o)
 .ARM.attributes
                0x0000000000000517       0x2d /usr/lib/gcc/arm-none-eabi/10.3.1/../../../arm-none-eabi/lib/thumb/v7-m/nofp/libc_nano.a(lib_a-strcpy.o)
 .ARM.attributes
                0x0000000000000544       0x2d /usr/lib/gcc/arm-none-eabi/10.3.1/../../../arm-none-eabi/lib/thumb/v7-m/nofp/libc_nano.a(lib_a-strlen-stub.o)
 .ARM.attributes
                0x0000000000000571       0x2d /usr/lib/gcc/arm-none-eabi/10.3.1/../../../arm-none-eabi/lib/thumb/v7-m/nofp/libc_nano.a(lib_a-strstr.o)
 .ARM.attributes
                0x000000000000059e       0x2d /usr/lib/gcc/arm-none-eabi/10.3.1/../../../arm-none-eabi/lib/thumb/v7-m/nofp/libc_nano.a(lib_a-wbuf.o)
 .ARM.attributes
                0x00000000000005cb       0x2d /usr/lib/gcc/arm-none-eabi/10.3.1/../../../arm-none-eabi/lib/thumb/v7-m/nofp/libc_nano.a(lib_a-wsetup.o)
 .ARM.attributes
                0x00000000000005f8       0x2d /usr/lib/gcc/arm-none-eabi/10.3.1/../../../arm-none-eabi/lib/thumb/v7-m/nofp/libc_nano.a(lib_a-dtoa.o)
 .ARM.attributes
                0x0000000000000625       0x2d /usr/lib/gcc/arm-none-eabi/10.3.1/../../../arm-none-eabi/lib/thumb/v7-m/nofp/libc_nano.a(lib_a-fflush.o)
 .ARM.attributes
                0x0000000000000652       0x2d /usr/lib/gcc/arm-none-eabi/10.3.1/../../../arm-none-eabi/lib/thumb/v7-m/nofp/libc_nano.a(lib_a-findfp.o)
 .ARM.attributes
                0x000000000000067f       0x2d /usr/lib/gcc/arm-none-eabi/10.3.1/../../../arm-none-eabi/lib/thumb/v7-m/nofp/libc_nano.a(lib_a-fwalk.o)
 .ARM.attributes
                0x00000000000006ac       0x2d /usr/lib/gcc/arm-none-eabi/10.3.1/../../../arm-none-eabi/lib/thumb/v7-m/nofp/libc_nano.a(lib_a-localeconv.o)
 .ARM.attributes
                0x00000000000006d9       0x2d /usr/lib/gcc/arm-none-eabi/10.3.1/../../../arm-none-eabi/lib/thumb/v7-m/nofp/libc_nano.a(lib_a-makebuf.o)
 .ARM.attributes
                0x0000000000000706       0x2d /usr/lib/gcc/arm-none-eabi/10.3.1/../../../arm-none-eabi/lib/thumb/v7-m/nofp/libc_nano.a(lib_a-malloc.o)
 .ARM.attributes
                0x0000000000000733       0x2d /usr/lib/gcc/arm-none-eabi/10.3.1/../../../arm-none-eabi/lib/thumb/v7-m/nofp/libc_nano.a(lib_a-memchr-stub.o)
 .ARM.attributes
                0x0000000000000760       0x2d /usr/lib/gcc/arm-none-eabi/10.3.1/../../../arm-none-eabi/lib/thumb/v7-m/nofp/libc_nano.a(lib_a-memcmp.o)
 .ARM.attributes
                0x000000000000078d       0x1b /usr/lib/gcc/arm-none-eabi/10.3.1/../../../arm-none-eabi/lib/thumb/v7-m/nofp/libc_nano.a(lib_a-memcpy.o)
 .ARM.attributes
                0x00000000000007a8       0x2d /usr/lib/gcc/arm-none-eabi/10.3.1/../../../arm-none-eabi/lib/thumb/v7-m/nofp/libc_nano.a(lib_a-mprec.o)
 .ARM.attributes
                0x00000000000007d5       0x2d /usr/lib/gcc/arm-none-eabi/10.3.1/../../../arm-none-eabi/lib/thumb/v7-m/nofp/libc_nano.a(lib_a-nano-callocr.o)
 .ARM.attributes
                0x0000000000000802       0x2d /usr/lib/gcc/arm-none-eabi/10.3.1/../../../arm-none-eabi/lib/thumb/v7-m/nofp/libc_nano.a(lib_a-nano-freer.o)
 .ARM.attributes
                0x000000000000082f       0x2d /usr/lib/gcc/arm-none-eabi/10.3.1/../../../arm-none-eabi/lib/thumb/v7-m/nofp/libc_nano.a(lib_a-nano-mallocr.o)
 .ARM.attributes
                0x000000000000085c       0x2d /usr/lib/gcc/arm-none-eabi/10.3.1/../../../arm-none-eabi/lib/thumb/v7-m/nofp/libc_nano.a(lib_a-nano-svfprintf.o)
 .ARM.attributes
                0x0000000000000889       0x2d /usr/lib/gcc/arm-none-eabi/10.3.1/../../../arm-none-eabi/lib/thumb/v7-m/nofp/libc_nano.a(lib_a-nano-vfprintf.o)
 .ARM.attributes
                0x00000000000008b6       0x2d /usr/lib/gcc/arm-none-eabi/10.3.1/../../../arm-none-eabi/lib/thumb/v7-m/nofp/libc_nano.a(lib_a-sbrkr.o)
 .ARM.attributes
                0x00000000000008e3       0x2d /usr/lib/gcc/arm-none-eabi/10.3.1/../../../arm-none-eabi/lib/thumb/v7-m/nofp/libc_nano.a(lib_a-stdio.o)
 .ARM.attributes
                0x0000000000000910       0x2d /usr/lib/gcc/arm-none-eabi/10.3.1/../../../arm-none-eabi/lib/thumb/v7-m/nofp/libc_nano.a(lib_a-strchr.o)
 .ARM.attributes
                0x000000000000093d       0x2d /usr/lib/gcc/arm-none-eabi/10.3.1/../../../arm-none-eabi/lib/thumb/v7-m/nofp/libc_nano.a(lib_a-strnlen.o)
 .ARM.attributes
                0x000000000000096a       0x2d /usr/lib/gcc/arm-none-eabi/10.3.1/../../../arm-none-eabi/lib/thumb/v7-m/nofp/libc_nano.a(lib_a-writer.o)
 .ARM.attributes
                0x0000000000000997       0x2d /usr/lib/gcc/arm-none-eabi/10.3.1/../../../arm-none-eabi/lib/thumb/v7-m/nofp/libc_nano.a(lib_a-assert.o)
 .ARM.attributes
                0x00000000000009c4       0x2d /usr/lib/gcc/arm-none-eabi/10.3.1/../../../arm-none-eabi/lib/thumb/v7-m/nofp/libc_nano.a(lib_a-closer.o)
 .ARM.attributes
                0x00000000000009f1       0x2d /usr/lib/gcc/arm-none-eabi/10.3.1/../../../arm-none-eabi/lib/thumb/v7-m/nofp/libc_nano.a(lib_a-fprintf.o)
 .ARM.attributes
                0x0000000000000a1e       0x2d /usr/lib/gcc/arm-none-eabi/10.3.1/../../../arm-none-eabi/lib/thumb/v7-m/nofp/libc_nano.a(lib_a-fstatr.o)
 .ARM.attributes
                0x0000000000000a4b       0x2d /usr/lib/gcc/arm-none-eabi/10.3.1/../../../arm-none-eabi/lib/thumb/v7-m/nofp/libc_nano.a(lib_a-fvwrite.o)
 .ARM.attributes
                0x0000000000000a78       0x2d /usr/lib/gcc/arm-none-eabi/10.3.1/../../../arm-none-eabi/lib/thumb/v7-m/nofp/libc_nano.a(lib_a-isattyr.o)
 .ARM.attributes
                0x0000000000000aa5       0x2d /usr/lib/gcc/arm-none-eabi/10.3.1/../../../arm-none-eabi/lib/thumb/v7-m/nofp/libc_nano.a(lib_a-locale.o)
 .ARM.attributes
                0x0000000000000ad2       0x2d /usr/lib/gcc/arm-none-eabi/10.3.1/../../../arm-none-eabi/lib/thumb/v7-m/nofp/libc_nano.a(lib_a-lseekr.o)
 .ARM.attributes
                0x0000000000000aff       0x2d /usr/lib/gcc/arm-none-eabi/10.3.1/../../../arm-none-eabi/lib/thumb/v7-m/nofp/libc_nano.a(lib_a-mbtowc_r.o)
 .ARM.attributes
                0x0000000000000b2c       0x2d /usr/lib/gcc/arm-none-eabi/10.3.1/../../../arm-none-eabi/lib/thumb/v7-m/nofp/libc_nano.a(lib_a-memmove.o)
 .ARM.attributes
                0x0000000000000b59       0x2d /usr/lib/gcc/arm-none-eabi/10.3.1/../../../arm-none-eabi/lib/thumb/v7-m/nofp/libc_nano.a(lib_a-mlock.o)
 .ARM.attributes
                0x0000000000000b86       0x2d /usr/lib/gcc/arm-none-eabi/10.3.1/../../../arm-none-eabi/lib/thumb/v7-m/nofp/libc_nano.a(lib_a-nano-reallocr.o)
 .ARM.attributes
                0x0000000000000bb3       0x2d /usr/lib/gcc/arm-none-eabi/10.3.1/../../../arm-none-eabi/lib/thumb/v7-m/nofp/libc_nano.a(lib_a-readr.o)
 .ARM.attributes
                0x0000000000000be0       0x2d /usr/lib/gcc/arm-none-eabi/10.3.1/../../../arm-none-eabi/lib/thumb/v7-m/nofp/libc_nano.a(lib_a-reent.o)
 .ARM.attributes
                0x0000000000000c0d       0x2d /usr/lib/gcc/arm-none-eabi/10.3.1/../../../arm-none-eabi/lib/thumb/v7-m/nofp/libc_nano.a(lib_a-wctomb_r.o)
 .ARM.attributes
                0x0000000000000c3a       0x2d /usr/lib/gcc/arm-none-eabi/10.3.1/../../../arm-none-eabi/lib/thumb/v7-m/nofp/libc_nano.a(lib_a-abort.o)
 .ARM.attributes
                0x0000000000000c67       0x2d /usr/lib/gcc/arm-none-eabi/10.3.1/../../../arm-none-eabi/lib/thumb/v7-m/nofp/libc_nano.a(lib_a-ctype_.o)
 .ARM.attributes
                0x0000000000000c94       0x2d /usr/lib/gcc/arm-none-eabi/10.3.1/../../../arm-none-eabi/lib/thumb/v7-m/nofp/libc_nano.a(lib_a-nano-msizer.o)
 .ARM.attributes
                0x0000000000000cc1       0x2d /usr/lib/gcc/arm-none-eabi/10.3.1/../../../arm-none-eabi/lib/thumb/v7-m/nofp/libc_nano.a(lib_a-signal.o)
 .ARM.attributes
                0x0000000000000cee       0x2d /usr/lib/gcc/arm-none-eabi/10.3.1/../../../arm-none-eabi/lib/thumb/v7-m/nofp/libc_nano.a(lib_a-signalr.o)
 .ARM.attributes
                0x0000000000000d1b       0x1d /usr/lib/gcc/arm-none-eabi/10.3.1/thumb/v7-m/nofp/libgcc.a(_arm_cmpdf2.o)
 .ARM.attributes
                0x0000000000000d38       0x1d /usr/lib/gcc/arm-none-eabi/10.3.1/thumb/v7-m/nofp/libgcc.a(_arm_unorddf2.o)
 .ARM.attributes
                0x0000000000000d55       0x1d /usr/lib/gcc/arm-none-eabi/10.3.1/thumb/v7-m/nofp/libgcc.a(_arm_fixdfsi.o)
 .ARM.attributes
                0x0000000000000d72       0x2d /usr/lib/gcc/arm-none-eabi/10.3.1/../../../arm-none-eabi/lib/thumb/v7-m/nofp/libnosys.a(close.o)
 .ARM.attributes
                0x0000000000000d9f       0x2d /usr/lib/gcc/arm-none-eabi/10.3.1/../../../arm-none-eabi/lib/thumb/v7-m/nofp/libnosys.a(fstat.o)
 .ARM.attributes
                0x0000000000000dcc       0x2d /usr/lib/gcc/arm-none-eabi/10.3.1/../../../arm-none-eabi/lib/thumb/v7-m/nofp/libnosys.a(getpid.o)
 .ARM.attributes
                0x0000000000000df9       0x2d /usr/lib/gcc/arm-none-eabi/10.3.1/../../../arm-none-eabi/lib/thumb/v7-m/nofp/libnosys.a(isatty.o)
 .ARM.attributes
                0x0000000000000e26       0x2d /usr/lib/gcc/arm-none-eabi/10.3.1/../../../arm-none-eabi/lib/thumb/v7-m/nofp/libnosys.a(kill.o)
 .ARM.attributes
                0x0000000000000e53       0x2d /usr/lib/gcc/arm-none-eabi/10.3.1/../../../arm-none-eabi/lib/thumb/v7-m/nofp/libnosys.a(lseek.o)
 .ARM.attributes
                0x0000000000000e80       0x2d /usr/lib/gcc/arm-none-eabi/10.3.1/../../../arm-none-eabi/lib/thumb/v7-m/nofp/libnosys.a(read.o)
 .ARM.attributes
                0x0000000000000ead       0x2d /usr/lib/gcc/arm-none-eabi/10.3.1/../../../arm-none-eabi/lib/thumb/v7-m/nofp/libnosys.a(sbrk.o)
 .ARM.attributes
                0x0000000000000eda       0x2d /usr/lib/gcc/arm-none-eabi/10.3.1/../../../arm-none-eabi/lib/thumb/v7-m/nofp/libnosys.a(_exit.o)
 .ARM.attributes
                0x0000000000000f07       0x2d /usr/lib/gcc/arm-none-eabi/10.3.1/thumb/v7-m/nofp/crtend.o
 .ARM.attributes
                0x0000000000000f34       0x1d /usr/lib/gcc/arm-none-eabi/10.3.1/thumb/v7-m/nofp/crtn.o
OUTPUT(Project.elf elf32-littlearm)
LOAD linker stubs
LOAD /usr/lib/gcc/arm-none-eabi/10.3.1/../../../arm-none-eabi/lib/thumb/v7-m/nofp/libc.a
LOAD /usr/lib/gcc/arm-none-eabi/10.3.1/../../../arm-none-eabi/lib/thumb/v7-m/nofp/libm.a
LOAD /usr/lib/gcc/arm-none-eabi/10.3.1/thumb/v7-m/nofp/libgcc.a

.comment        0x0000000000000000       0x33
 .comment       0x0000000000000000       0x33 /usr/lib/gcc/arm-none-eabi/10.3.1/thumb/v7-m/nofp/crtbegin.o
                                         0x34 (size before relaxing)
 .comment       0x0000000000000033       0x34 CMakeFiles/Project.elf.dir/Code/Src/GPS.c.obj
 .comment       0x0000000000000033       0x34 CMakeFiles/Project.elf.dir/Code/Src/GPS_Usart.c.obj
 .comment       0x0000000000000033       0x34 CMakeFiles/Project.elf.dir/Code/Src/I2COLED.c.obj
 .comment       0x0000000000000033       0x34 CMakeFiles/Project.elf.dir/Code/Src/NBIOT_Usart.c.obj
 .comment       0x0000000000000033       0x34 CMakeFiles/Project.elf.dir/Code/Src/OLED.c.obj
 .comment       0x0000000000000033       0x34 CMakeFiles/Project.elf.dir/Code/Src/OneWrite.c.obj
 .comment       0x0000000000000033       0x34 CMakeFiles/Project.elf.dir/Code/Src/Usart.c.obj
 .comment       0x0000000000000033       0x34 CMakeFiles/Project.elf.dir/Code/Src/nbiot.c.obj
 .comment       0x0000000000000033       0x34 CMakeFiles/Project.elf.dir/Lib/Src/misc.c.obj
 .comment       0x0000000000000033       0x34 CMakeFiles/Project.elf.dir/Lib/Src/stm32f10x_gpio.c.obj
 .comment       0x0000000000000033       0x34 CMakeFiles/Project.elf.dir/Lib/Src/stm32f10x_i2c.c.obj
 .comment       0x0000000000000033       0x34 CMakeFiles/Project.elf.dir/Lib/Src/stm32f10x_rcc.c.obj
 .comment       0x0000000000000033       0x34 CMakeFiles/Project.elf.dir/Lib/Src/stm32f10x_usart.c.obj
 .comment       0x0000000000000033       0x34 CMakeFiles/Project.elf.dir/Start/Src/stm32f10x_it.c.obj
 .comment       0x0000000000000033       0x34 CMakeFiles/Project.elf.dir/Start/Src/system_stm32f10x.c.obj
 .comment       0x0000000000000033       0x34 CMakeFiles/Project.elf.dir/System/Src/Delay.c.obj
 .comment       0x0000000000000033       0x34 CMakeFiles/Project.elf.dir/User/main.c.obj
 .comment       0x0000000000000033       0x34 /usr/lib/gcc/arm-none-eabi/10.3.1/../../../arm-none-eabi/lib/thumb/v7-m/nofp/libc_nano.a(lib_a-impure.o)
 .comment       0x0000000000000033       0x34 /usr/lib/gcc/arm-none-eabi/10.3.1/../../../arm-none-eabi/lib/thumb/v7-m/nofp/libc_nano.a(lib_a-memset.o)
 .comment       0x0000000000000033       0x34 /usr/lib/gcc/arm-none-eabi/10.3.1/../../../arm-none-eabi/lib/thumb/v7-m/nofp/libc_nano.a(lib_a-nano-vfprintf_float.o)
 .comment       0x0000000000000033       0x34 /usr/lib/gcc/arm-none-eabi/10.3.1/../../../arm-none-eabi/lib/thumb/v7-m/nofp/libc_nano.a(lib_a-nano-vfprintf_i.o)
 .comment       0x0000000000000033       0x34 /usr/lib/gcc/arm-none-eabi/10.3.1/../../../arm-none-eabi/lib/thumb/v7-m/nofp/libc_nano.a(lib_a-printf.o)
 .comment       0x0000000000000033       0x34 /usr/lib/gcc/arm-none-eabi/10.3.1/../../../arm-none-eabi/lib/thumb/v7-m/nofp/libc_nano.a(lib_a-puts.o)
 .comment       0x0000000000000033       0x34 /usr/lib/gcc/arm-none-eabi/10.3.1/../../../arm-none-eabi/lib/thumb/v7-m/nofp/libc_nano.a(lib_a-sprintf.o)
 .comment       0x0000000000000033       0x34 /usr/lib/gcc/arm-none-eabi/10.3.1/../../../arm-none-eabi/lib/thumb/v7-m/nofp/libc_nano.a(lib_a-strcpy.o)
 .comment       0x0000000000000033       0x34 /usr/lib/gcc/arm-none-eabi/10.3.1/../../../arm-none-eabi/lib/thumb/v7-m/nofp/libc_nano.a(lib_a-strlen-stub.o)
 .comment       0x0000000000000033       0x34 /usr/lib/gcc/arm-none-eabi/10.3.1/../../../arm-none-eabi/lib/thumb/v7-m/nofp/libc_nano.a(lib_a-strstr.o)
 .comment       0x0000000000000033       0x34 /usr/lib/gcc/arm-none-eabi/10.3.1/../../../arm-none-eabi/lib/thumb/v7-m/nofp/libc_nano.a(lib_a-wbuf.o)
 .comment       0x0000000000000033       0x34 /usr/lib/gcc/arm-none-eabi/10.3.1/../../../arm-none-eabi/lib/thumb/v7-m/nofp/libc_nano.a(lib_a-wsetup.o)
 .comment       0x0000000000000033       0x34 /usr/lib/gcc/arm-none-eabi/10.3.1/../../../arm-none-eabi/lib/thumb/v7-m/nofp/libc_nano.a(lib_a-dtoa.o)
 .comment       0x0000000000000033       0x34 /usr/lib/gcc/arm-none-eabi/10.3.1/../../../arm-none-eabi/lib/thumb/v7-m/nofp/libc_nano.a(lib_a-fflush.o)
 .comment       0x0000000000000033       0x34 /usr/lib/gcc/arm-none-eabi/10.3.1/../../../arm-none-eabi/lib/thumb/v7-m/nofp/libc_nano.a(lib_a-findfp.o)
 .comment       0x0000000000000033       0x34 /usr/lib/gcc/arm-none-eabi/10.3.1/../../../arm-none-eabi/lib/thumb/v7-m/nofp/libc_nano.a(lib_a-fwalk.o)
 .comment       0x0000000000000033       0x34 /usr/lib/gcc/arm-none-eabi/10.3.1/../../../arm-none-eabi/lib/thumb/v7-m/nofp/libc_nano.a(lib_a-localeconv.o)
 .comment       0x0000000000000033       0x34 /usr/lib/gcc/arm-none-eabi/10.3.1/../../../arm-none-eabi/lib/thumb/v7-m/nofp/libc_nano.a(lib_a-makebuf.o)
 .comment       0x0000000000000033       0x34 /usr/lib/gcc/arm-none-eabi/10.3.1/../../../arm-none-eabi/lib/thumb/v7-m/nofp/libc_nano.a(lib_a-malloc.o)
 .comment       0x0000000000000033       0x34 /usr/lib/gcc/arm-none-eabi/10.3.1/../../../arm-none-eabi/lib/thumb/v7-m/nofp/libc_nano.a(lib_a-memchr-stub.o)
 .comment       0x0000000000000033       0x34 /usr/lib/gcc/arm-none-eabi/10.3.1/../../../arm-none-eabi/lib/thumb/v7-m/nofp/libc_nano.a(lib_a-memcmp.o)
 .comment       0x0000000000000033       0x34 /usr/lib/gcc/arm-none-eabi/10.3.1/../../../arm-none-eabi/lib/thumb/v7-m/nofp/libc_nano.a(lib_a-mprec.o)
 .comment       0x0000000000000033       0x34 /usr/lib/gcc/arm-none-eabi/10.3.1/../../../arm-none-eabi/lib/thumb/v7-m/nofp/libc_nano.a(lib_a-nano-callocr.o)
 .comment       0x0000000000000033       0x34 /usr/lib/gcc/arm-none-eabi/10.3.1/../../../arm-none-eabi/lib/thumb/v7-m/nofp/libc_nano.a(lib_a-nano-freer.o)
 .comment       0x0000000000000033       0x34 /usr/lib/gcc/arm-none-eabi/10.3.1/../../../arm-none-eabi/lib/thumb/v7-m/nofp/libc_nano.a(lib_a-nano-mallocr.o)
 .comment       0x0000000000000033       0x34 /usr/lib/gcc/arm-none-eabi/10.3.1/../../../arm-none-eabi/lib/thumb/v7-m/nofp/libc_nano.a(lib_a-nano-svfprintf.o)
 .comment       0x0000000000000033       0x34 /usr/lib/gcc/arm-none-eabi/10.3.1/../../../arm-none-eabi/lib/thumb/v7-m/nofp/libc_nano.a(lib_a-nano-vfprintf.o)
 .comment       0x0000000000000033       0x34 /usr/lib/gcc/arm-none-eabi/10.3.1/../../../arm-none-eabi/lib/thumb/v7-m/nofp/libc_nano.a(lib_a-sbrkr.o)
 .comment       0x0000000000000033       0x34 /usr/lib/gcc/arm-none-eabi/10.3.1/../../../arm-none-eabi/lib/thumb/v7-m/nofp/libc_nano.a(lib_a-stdio.o)
 .comment       0x0000000000000033       0x34 /usr/lib/gcc/arm-none-eabi/10.3.1/../../../arm-none-eabi/lib/thumb/v7-m/nofp/libc_nano.a(lib_a-strchr.o)
 .comment       0x0000000000000033       0x34 /usr/lib/gcc/arm-none-eabi/10.3.1/../../../arm-none-eabi/lib/thumb/v7-m/nofp/libc_nano.a(lib_a-strnlen.o)
 .comment       0x0000000000000033       0x34 /usr/lib/gcc/arm-none-eabi/10.3.1/../../../arm-none-eabi/lib/thumb/v7-m/nofp/libc_nano.a(lib_a-writer.o)
 .comment       0x0000000000000033       0x34 /usr/lib/gcc/arm-none-eabi/10.3.1/../../../arm-none-eabi/lib/thumb/v7-m/nofp/libc_nano.a(lib_a-assert.o)
 .comment       0x0000000000000033       0x34 /usr/lib/gcc/arm-none-eabi/10.3.1/../../../arm-none-eabi/lib/thumb/v7-m/nofp/libc_nano.a(lib_a-closer.o)
 .comment       0x0000000000000033       0x34 /usr/lib/gcc/arm-none-eabi/10.3.1/../../../arm-none-eabi/lib/thumb/v7-m/nofp/libc_nano.a(lib_a-fprintf.o)
 .comment       0x0000000000000033       0x34 /usr/lib/gcc/arm-none-eabi/10.3.1/../../../arm-none-eabi/lib/thumb/v7-m/nofp/libc_nano.a(lib_a-fstatr.o)
 .comment       0x0000000000000033       0x34 /usr/lib/gcc/arm-none-eabi/10.3.1/../../../arm-none-eabi/lib/thumb/v7-m/nofp/libc_nano.a(lib_a-fvwrite.o)
 .comment       0x0000000000000033       0x34 /usr/lib/gcc/arm-none-eabi/10.3.1/../../../arm-none-eabi/lib/thumb/v7-m/nofp/libc_nano.a(lib_a-isattyr.o)
 .comment       0x0000000000000033       0x34 /usr/lib/gcc/arm-none-eabi/10.3.1/../../../arm-none-eabi/lib/thumb/v7-m/nofp/libc_nano.a(lib_a-locale.o)
 .comment       0x0000000000000033       0x34 /usr/lib/gcc/arm-none-eabi/10.3.1/../../../arm-none-eabi/lib/thumb/v7-m/nofp/libc_nano.a(lib_a-lseekr.o)
 .comment       0x0000000000000033       0x34 /usr/lib/gcc/arm-none-eabi/10.3.1/../../../arm-none-eabi/lib/thumb/v7-m/nofp/libc_nano.a(lib_a-mbtowc_r.o)
 .comment       0x0000000000000033       0x34 /usr/lib/gcc/arm-none-eabi/10.3.1/../../../arm-none-eabi/lib/thumb/v7-m/nofp/libc_nano.a(lib_a-memmove.o)
 .comment       0x0000000000000033       0x34 /usr/lib/gcc/arm-none-eabi/10.3.1/../../../arm-none-eabi/lib/thumb/v7-m/nofp/libc_nano.a(lib_a-mlock.o)
 .comment       0x0000000000000033       0x34 /usr/lib/gcc/arm-none-eabi/10.3.1/../../../arm-none-eabi/lib/thumb/v7-m/nofp/libc_nano.a(lib_a-nano-reallocr.o)
 .comment       0x0000000000000033       0x34 /usr/lib/gcc/arm-none-eabi/10.3.1/../../../arm-none-eabi/lib/thumb/v7-m/nofp/libc_nano.a(lib_a-readr.o)
 .comment       0x0000000000000033       0x34 /usr/lib/gcc/arm-none-eabi/10.3.1/../../../arm-none-eabi/lib/thumb/v7-m/nofp/libc_nano.a(lib_a-reent.o)
 .comment       0x0000000000000033       0x34 /usr/lib/gcc/arm-none-eabi/10.3.1/../../../arm-none-eabi/lib/thumb/v7-m/nofp/libc_nano.a(lib_a-wctomb_r.o)
 .comment       0x0000000000000033       0x34 /usr/lib/gcc/arm-none-eabi/10.3.1/../../../arm-none-eabi/lib/thumb/v7-m/nofp/libc_nano.a(lib_a-abort.o)
 .comment       0x0000000000000033       0x34 /usr/lib/gcc/arm-none-eabi/10.3.1/../../../arm-none-eabi/lib/thumb/v7-m/nofp/libc_nano.a(lib_a-ctype_.o)
 .comment       0x0000000000000033       0x34 /usr/lib/gcc/arm-none-eabi/10.3.1/../../../arm-none-eabi/lib/thumb/v7-m/nofp/libc_nano.a(lib_a-nano-msizer.o)
 .comment       0x0000000000000033       0x34 /usr/lib/gcc/arm-none-eabi/10.3.1/../../../arm-none-eabi/lib/thumb/v7-m/nofp/libc_nano.a(lib_a-signal.o)
 .comment       0x0000000000000033       0x34 /usr/lib/gcc/arm-none-eabi/10.3.1/../../../arm-none-eabi/lib/thumb/v7-m/nofp/libc_nano.a(lib_a-signalr.o)
 .comment       0x0000000000000033       0x34 /usr/lib/gcc/arm-none-eabi/10.3.1/../../../arm-none-eabi/lib/thumb/v7-m/nofp/libnosys.a(close.o)
 .comment       0x0000000000000033       0x34 /usr/lib/gcc/arm-none-eabi/10.3.1/../../../arm-none-eabi/lib/thumb/v7-m/nofp/libnosys.a(fstat.o)
 .comment       0x0000000000000033       0x34 /usr/lib/gcc/arm-none-eabi/10.3.1/../../../arm-none-eabi/lib/thumb/v7-m/nofp/libnosys.a(getpid.o)
 .comment       0x0000000000000033       0x34 /usr/lib/gcc/arm-none-eabi/10.3.1/../../../arm-none-eabi/lib/thumb/v7-m/nofp/libnosys.a(isatty.o)
 .comment       0x0000000000000033       0x34 /usr/lib/gcc/arm-none-eabi/10.3.1/../../../arm-none-eabi/lib/thumb/v7-m/nofp/libnosys.a(kill.o)
 .comment       0x0000000000000033       0x34 /usr/lib/gcc/arm-none-eabi/10.3.1/../../../arm-none-eabi/lib/thumb/v7-m/nofp/libnosys.a(lseek.o)
 .comment       0x0000000000000033       0x34 /usr/lib/gcc/arm-none-eabi/10.3.1/../../../arm-none-eabi/lib/thumb/v7-m/nofp/libnosys.a(read.o)
 .comment       0x0000000000000033       0x34 /usr/lib/gcc/arm-none-eabi/10.3.1/../../../arm-none-eabi/lib/thumb/v7-m/nofp/libnosys.a(sbrk.o)
 .comment       0x0000000000000033       0x34 /usr/lib/gcc/arm-none-eabi/10.3.1/../../../arm-none-eabi/lib/thumb/v7-m/nofp/libnosys.a(_exit.o)
 .comment       0x0000000000000033       0x34 /usr/lib/gcc/arm-none-eabi/10.3.1/thumb/v7-m/nofp/crtend.o

.debug_info     0x0000000000000000    0x2786c
 .debug_info    0x0000000000000000       0xf7 CMakeFiles/Project.elf.dir/Code/Src/GPS.c.obj
 .debug_info    0x00000000000000f7      0xb03 CMakeFiles/Project.elf.dir/Code/Src/GPS_Usart.c.obj
 .debug_info    0x0000000000000bfa     0x155c CMakeFiles/Project.elf.dir/Code/Src/I2COLED.c.obj
 .debug_info    0x0000000000002156      0xc34 CMakeFiles/Project.elf.dir/Code/Src/NBIOT_Usart.c.obj
 .debug_info    0x0000000000002d8a      0x42d CMakeFiles/Project.elf.dir/Code/Src/OLED.c.obj
 .debug_info    0x00000000000031b7      0xa96 CMakeFiles/Project.elf.dir/Code/Src/OneWrite.c.obj
 .debug_info    0x0000000000003c4d      0x9ce CMakeFiles/Project.elf.dir/Code/Src/Usart.c.obj
 .debug_info    0x000000000000461b      0x632 CMakeFiles/Project.elf.dir/Code/Src/nbiot.c.obj
 .debug_info    0x0000000000004c4d      0x533 CMakeFiles/Project.elf.dir/Lib/Src/misc.c.obj
 .debug_info    0x0000000000005180      0x925 CMakeFiles/Project.elf.dir/Lib/Src/stm32f10x_gpio.c.obj
 .debug_info    0x0000000000005aa5      0xca1 CMakeFiles/Project.elf.dir/Lib/Src/stm32f10x_i2c.c.obj
 .debug_info    0x0000000000006746      0x986 CMakeFiles/Project.elf.dir/Lib/Src/stm32f10x_rcc.c.obj
 .debug_info    0x00000000000070cc      0xc0f CMakeFiles/Project.elf.dir/Lib/Src/stm32f10x_usart.c.obj
 .debug_info    0x0000000000007cdb       0x22 CMakeFiles/Project.elf.dir/Project/Code-Cmake/startup_stm32f10x_md.s.obj
 .debug_info    0x0000000000007cfd      0x115 CMakeFiles/Project.elf.dir/Start/Src/stm32f10x_it.c.obj
 .debug_info    0x0000000000007e12      0x4a3 CMakeFiles/Project.elf.dir/Start/Src/system_stm32f10x.c.obj
 .debug_info    0x00000000000082b5      0x183 CMakeFiles/Project.elf.dir/System/Src/Delay.c.obj
 .debug_info    0x0000000000008438      0x3e0 CMakeFiles/Project.elf.dir/User/main.c.obj
 .debug_info    0x0000000000008818       0x26 /usr/lib/gcc/arm-none-eabi/10.3.1/thumb/v7-m/nofp/libgcc.a(_arm_addsubdf3.o)
 .debug_info    0x000000000000883e       0x26 /usr/lib/gcc/arm-none-eabi/10.3.1/thumb/v7-m/nofp/libgcc.a(_arm_muldivdf3.o)
 .debug_info    0x0000000000008864       0x26 /usr/lib/gcc/arm-none-eabi/10.3.1/thumb/v7-m/nofp/libgcc.a(_arm_truncdfsf2.o)
 .debug_info    0x000000000000888a       0x26 /usr/lib/gcc/arm-none-eabi/10.3.1/thumb/v7-m/nofp/libgcc.a(_arm_addsubsf3.o)
 .debug_info    0x00000000000088b0      0x863 /usr/lib/gcc/arm-none-eabi/10.3.1/../../../arm-none-eabi/lib/thumb/v7-m/nofp/libc_nano.a(lib_a-impure.o)
 .debug_info    0x0000000000009113      0x137 /usr/lib/gcc/arm-none-eabi/10.3.1/../../../arm-none-eabi/lib/thumb/v7-m/nofp/libc_nano.a(lib_a-memset.o)
 .debug_info    0x000000000000924a     0x1480 /usr/lib/gcc/arm-none-eabi/10.3.1/../../../arm-none-eabi/lib/thumb/v7-m/nofp/libc_nano.a(lib_a-nano-vfprintf_float.o)
 .debug_info    0x000000000000a6ca      0xe9e /usr/lib/gcc/arm-none-eabi/10.3.1/../../../arm-none-eabi/lib/thumb/v7-m/nofp/libc_nano.a(lib_a-nano-vfprintf_i.o)
 .debug_info    0x000000000000b568      0x8fd /usr/lib/gcc/arm-none-eabi/10.3.1/../../../arm-none-eabi/lib/thumb/v7-m/nofp/libc_nano.a(lib_a-printf.o)
 .debug_info    0x000000000000be65      0xa4e /usr/lib/gcc/arm-none-eabi/10.3.1/../../../arm-none-eabi/lib/thumb/v7-m/nofp/libc_nano.a(lib_a-puts.o)
 .debug_info    0x000000000000c8b3      0x926 /usr/lib/gcc/arm-none-eabi/10.3.1/../../../arm-none-eabi/lib/thumb/v7-m/nofp/libc_nano.a(lib_a-sprintf.o)
 .debug_info    0x000000000000d1d9       0xc4 /usr/lib/gcc/arm-none-eabi/10.3.1/../../../arm-none-eabi/lib/thumb/v7-m/nofp/libc_nano.a(lib_a-strcpy.o)
 .debug_info    0x000000000000d29d       0xbc /usr/lib/gcc/arm-none-eabi/10.3.1/../../../arm-none-eabi/lib/thumb/v7-m/nofp/libc_nano.a(lib_a-strlen-stub.o)
 .debug_info    0x000000000000d359      0x74b /usr/lib/gcc/arm-none-eabi/10.3.1/../../../arm-none-eabi/lib/thumb/v7-m/nofp/libc_nano.a(lib_a-strstr.o)
 .debug_info    0x000000000000daa4      0x998 /usr/lib/gcc/arm-none-eabi/10.3.1/../../../arm-none-eabi/lib/thumb/v7-m/nofp/libc_nano.a(lib_a-wbuf.o)
 .debug_info    0x000000000000e43c      0x902 /usr/lib/gcc/arm-none-eabi/10.3.1/../../../arm-none-eabi/lib/thumb/v7-m/nofp/libc_nano.a(lib_a-wsetup.o)
 .debug_info    0x000000000000ed3e     0x1969 /usr/lib/gcc/arm-none-eabi/10.3.1/../../../arm-none-eabi/lib/thumb/v7-m/nofp/libc_nano.a(lib_a-dtoa.o)
 .debug_info    0x00000000000106a7      0xb0a /usr/lib/gcc/arm-none-eabi/10.3.1/../../../arm-none-eabi/lib/thumb/v7-m/nofp/libc_nano.a(lib_a-fflush.o)
 .debug_info    0x00000000000111b1      0xfae /usr/lib/gcc/arm-none-eabi/10.3.1/../../../arm-none-eabi/lib/thumb/v7-m/nofp/libc_nano.a(lib_a-findfp.o)
 .debug_info    0x000000000001215f      0x900 /usr/lib/gcc/arm-none-eabi/10.3.1/../../../arm-none-eabi/lib/thumb/v7-m/nofp/libc_nano.a(lib_a-fwalk.o)
 .debug_info    0x0000000000012a5f      0xad8 /usr/lib/gcc/arm-none-eabi/10.3.1/../../../arm-none-eabi/lib/thumb/v7-m/nofp/libc_nano.a(lib_a-localeconv.o)
 .debug_info    0x0000000000013537      0xc8a /usr/lib/gcc/arm-none-eabi/10.3.1/../../../arm-none-eabi/lib/thumb/v7-m/nofp/libc_nano.a(lib_a-makebuf.o)
 .debug_info    0x00000000000141c1      0x832 /usr/lib/gcc/arm-none-eabi/10.3.1/../../../arm-none-eabi/lib/thumb/v7-m/nofp/libc_nano.a(lib_a-malloc.o)
 .debug_info    0x00000000000149f3      0x14e /usr/lib/gcc/arm-none-eabi/10.3.1/../../../arm-none-eabi/lib/thumb/v7-m/nofp/libc_nano.a(lib_a-memchr-stub.o)
 .debug_info    0x0000000000014b41      0x138 /usr/lib/gcc/arm-none-eabi/10.3.1/../../../arm-none-eabi/lib/thumb/v7-m/nofp/libc_nano.a(lib_a-memcmp.o)
 .debug_info    0x0000000000014c79       0x26 /usr/lib/gcc/arm-none-eabi/10.3.1/../../../arm-none-eabi/lib/thumb/v7-m/nofp/libc_nano.a(lib_a-memcpy.o)
 .debug_info    0x0000000000014c9f     0x1ffe /usr/lib/gcc/arm-none-eabi/10.3.1/../../../arm-none-eabi/lib/thumb/v7-m/nofp/libc_nano.a(lib_a-mprec.o)
 .debug_info    0x0000000000016c9d      0x858 /usr/lib/gcc/arm-none-eabi/10.3.1/../../../arm-none-eabi/lib/thumb/v7-m/nofp/libc_nano.a(lib_a-nano-callocr.o)
 .debug_info    0x00000000000174f5      0x940 /usr/lib/gcc/arm-none-eabi/10.3.1/../../../arm-none-eabi/lib/thumb/v7-m/nofp/libc_nano.a(lib_a-nano-freer.o)
 .debug_info    0x0000000000017e35      0xa0c /usr/lib/gcc/arm-none-eabi/10.3.1/../../../arm-none-eabi/lib/thumb/v7-m/nofp/libc_nano.a(lib_a-nano-mallocr.o)
 .debug_info    0x0000000000018841     0x10d5 /usr/lib/gcc/arm-none-eabi/10.3.1/../../../arm-none-eabi/lib/thumb/v7-m/nofp/libc_nano.a(lib_a-nano-svfprintf.o)
 .debug_info    0x0000000000019916     0x115f /usr/lib/gcc/arm-none-eabi/10.3.1/../../../arm-none-eabi/lib/thumb/v7-m/nofp/libc_nano.a(lib_a-nano-vfprintf.o)
 .debug_info    0x000000000001aa75      0x828 /usr/lib/gcc/arm-none-eabi/10.3.1/../../../arm-none-eabi/lib/thumb/v7-m/nofp/libc_nano.a(lib_a-sbrkr.o)
 .debug_info    0x000000000001b29d      0xabc /usr/lib/gcc/arm-none-eabi/10.3.1/../../../arm-none-eabi/lib/thumb/v7-m/nofp/libc_nano.a(lib_a-stdio.o)
 .debug_info    0x000000000001bd59      0x13a /usr/lib/gcc/arm-none-eabi/10.3.1/../../../arm-none-eabi/lib/thumb/v7-m/nofp/libc_nano.a(lib_a-strchr.o)
 .debug_info    0x000000000001be93       0xe2 /usr/lib/gcc/arm-none-eabi/10.3.1/../../../arm-none-eabi/lib/thumb/v7-m/nofp/libc_nano.a(lib_a-strnlen.o)
 .debug_info    0x000000000001bf75      0x85a /usr/lib/gcc/arm-none-eabi/10.3.1/../../../arm-none-eabi/lib/thumb/v7-m/nofp/libc_nano.a(lib_a-writer.o)
 .debug_info    0x000000000001c7cf      0x8bd /usr/lib/gcc/arm-none-eabi/10.3.1/../../../arm-none-eabi/lib/thumb/v7-m/nofp/libc_nano.a(lib_a-assert.o)
 .debug_info    0x000000000001d08c      0x805 /usr/lib/gcc/arm-none-eabi/10.3.1/../../../arm-none-eabi/lib/thumb/v7-m/nofp/libc_nano.a(lib_a-closer.o)
 .debug_info    0x000000000001d891      0x902 /usr/lib/gcc/arm-none-eabi/10.3.1/../../../arm-none-eabi/lib/thumb/v7-m/nofp/libc_nano.a(lib_a-fprintf.o)
 .debug_info    0x000000000001e193      0xa1d /usr/lib/gcc/arm-none-eabi/10.3.1/../../../arm-none-eabi/lib/thumb/v7-m/nofp/libc_nano.a(lib_a-fstatr.o)
 .debug_info    0x000000000001ebb0      0xb54 /usr/lib/gcc/arm-none-eabi/10.3.1/../../../arm-none-eabi/lib/thumb/v7-m/nofp/libc_nano.a(lib_a-fvwrite.o)
 .debug_info    0x000000000001f704      0x805 /usr/lib/gcc/arm-none-eabi/10.3.1/../../../arm-none-eabi/lib/thumb/v7-m/nofp/libc_nano.a(lib_a-isattyr.o)
 .debug_info    0x000000000001ff09      0xca4 /usr/lib/gcc/arm-none-eabi/10.3.1/../../../arm-none-eabi/lib/thumb/v7-m/nofp/libc_nano.a(lib_a-locale.o)
 .debug_info    0x0000000000020bad      0x83b /usr/lib/gcc/arm-none-eabi/10.3.1/../../../arm-none-eabi/lib/thumb/v7-m/nofp/libc_nano.a(lib_a-lseekr.o)
 .debug_info    0x00000000000213e8      0xb67 /usr/lib/gcc/arm-none-eabi/10.3.1/../../../arm-none-eabi/lib/thumb/v7-m/nofp/libc_nano.a(lib_a-mbtowc_r.o)
 .debug_info    0x0000000000021f4f      0x152 /usr/lib/gcc/arm-none-eabi/10.3.1/../../../arm-none-eabi/lib/thumb/v7-m/nofp/libc_nano.a(lib_a-memmove.o)
 .debug_info    0x00000000000220a1      0x7dc /usr/lib/gcc/arm-none-eabi/10.3.1/../../../arm-none-eabi/lib/thumb/v7-m/nofp/libc_nano.a(lib_a-mlock.o)
 .debug_info    0x000000000002287d      0x911 /usr/lib/gcc/arm-none-eabi/10.3.1/../../../arm-none-eabi/lib/thumb/v7-m/nofp/libc_nano.a(lib_a-nano-reallocr.o)
 .debug_info    0x000000000002318e      0x853 /usr/lib/gcc/arm-none-eabi/10.3.1/../../../arm-none-eabi/lib/thumb/v7-m/nofp/libc_nano.a(lib_a-readr.o)
 .debug_info    0x00000000000239e1      0xa7e /usr/lib/gcc/arm-none-eabi/10.3.1/../../../arm-none-eabi/lib/thumb/v7-m/nofp/libc_nano.a(lib_a-reent.o)
 .debug_info    0x000000000002445f      0xb26 /usr/lib/gcc/arm-none-eabi/10.3.1/../../../arm-none-eabi/lib/thumb/v7-m/nofp/libc_nano.a(lib_a-wctomb_r.o)
 .debug_info    0x0000000000024f85       0xcb /usr/lib/gcc/arm-none-eabi/10.3.1/../../../arm-none-eabi/lib/thumb/v7-m/nofp/libc_nano.a(lib_a-abort.o)
 .debug_info    0x0000000000025050       0xb8 /usr/lib/gcc/arm-none-eabi/10.3.1/../../../arm-none-eabi/lib/thumb/v7-m/nofp/libc_nano.a(lib_a-ctype_.o)
 .debug_info    0x0000000000025108      0x840 /usr/lib/gcc/arm-none-eabi/10.3.1/../../../arm-none-eabi/lib/thumb/v7-m/nofp/libc_nano.a(lib_a-nano-msizer.o)
 .debug_info    0x0000000000025948      0xdcc /usr/lib/gcc/arm-none-eabi/10.3.1/../../../arm-none-eabi/lib/thumb/v7-m/nofp/libc_nano.a(lib_a-signal.o)
 .debug_info    0x0000000000026714      0x871 /usr/lib/gcc/arm-none-eabi/10.3.1/../../../arm-none-eabi/lib/thumb/v7-m/nofp/libc_nano.a(lib_a-signalr.o)
 .debug_info    0x0000000000026f85       0x26 /usr/lib/gcc/arm-none-eabi/10.3.1/thumb/v7-m/nofp/libgcc.a(_arm_cmpdf2.o)
 .debug_info    0x0000000000026fab       0x26 /usr/lib/gcc/arm-none-eabi/10.3.1/thumb/v7-m/nofp/libgcc.a(_arm_unorddf2.o)
 .debug_info    0x0000000000026fd1       0x26 /usr/lib/gcc/arm-none-eabi/10.3.1/thumb/v7-m/nofp/libgcc.a(_arm_fixdfsi.o)
 .debug_info    0x0000000000026ff7       0xb1 /usr/lib/gcc/arm-none-eabi/10.3.1/../../../arm-none-eabi/lib/thumb/v7-m/nofp/libnosys.a(close.o)
 .debug_info    0x00000000000270a8      0x2cc /usr/lib/gcc/arm-none-eabi/10.3.1/../../../arm-none-eabi/lib/thumb/v7-m/nofp/libnosys.a(fstat.o)
 .debug_info    0x0000000000027374       0x9c /usr/lib/gcc/arm-none-eabi/10.3.1/../../../arm-none-eabi/lib/thumb/v7-m/nofp/libnosys.a(getpid.o)
 .debug_info    0x0000000000027410       0xb1 /usr/lib/gcc/arm-none-eabi/10.3.1/../../../arm-none-eabi/lib/thumb/v7-m/nofp/libnosys.a(isatty.o)
 .debug_info    0x00000000000274c1       0xbf /usr/lib/gcc/arm-none-eabi/10.3.1/../../../arm-none-eabi/lib/thumb/v7-m/nofp/libnosys.a(kill.o)
 .debug_info    0x0000000000027580       0xd3 /usr/lib/gcc/arm-none-eabi/10.3.1/../../../arm-none-eabi/lib/thumb/v7-m/nofp/libnosys.a(lseek.o)
 .debug_info    0x0000000000027653       0xd9 /usr/lib/gcc/arm-none-eabi/10.3.1/../../../arm-none-eabi/lib/thumb/v7-m/nofp/libnosys.a(read.o)
 .debug_info    0x000000000002772c       0x9d /usr/lib/gcc/arm-none-eabi/10.3.1/../../../arm-none-eabi/lib/thumb/v7-m/nofp/libnosys.a(sbrk.o)
 .debug_info    0x00000000000277c9       0xa3 /usr/lib/gcc/arm-none-eabi/10.3.1/../../../arm-none-eabi/lib/thumb/v7-m/nofp/libnosys.a(_exit.o)

.debug_abbrev   0x0000000000000000     0x846f
 .debug_abbrev  0x0000000000000000       0x79 CMakeFiles/Project.elf.dir/Code/Src/GPS.c.obj
 .debug_abbrev  0x0000000000000079      0x25c CMakeFiles/Project.elf.dir/Code/Src/GPS_Usart.c.obj
 .debug_abbrev  0x00000000000002d5      0x28d CMakeFiles/Project.elf.dir/Code/Src/I2COLED.c.obj
 .debug_abbrev  0x0000000000000562      0x2a6 CMakeFiles/Project.elf.dir/Code/Src/NBIOT_Usart.c.obj
 .debug_abbrev  0x0000000000000808       0xbb CMakeFiles/Project.elf.dir/Code/Src/OLED.c.obj
 .debug_abbrev  0x00000000000008c3      0x201 CMakeFiles/Project.elf.dir/Code/Src/OneWrite.c.obj
 .debug_abbrev  0x0000000000000ac4      0x265 CMakeFiles/Project.elf.dir/Code/Src/Usart.c.obj
 .debug_abbrev  0x0000000000000d29      0x26b CMakeFiles/Project.elf.dir/Code/Src/nbiot.c.obj
 .debug_abbrev  0x0000000000000f94      0x198 CMakeFiles/Project.elf.dir/Lib/Src/misc.c.obj
 .debug_abbrev  0x000000000000112c      0x220 CMakeFiles/Project.elf.dir/Lib/Src/stm32f10x_gpio.c.obj
 .debug_abbrev  0x000000000000134c      0x1ef CMakeFiles/Project.elf.dir/Lib/Src/stm32f10x_i2c.c.obj
 .debug_abbrev  0x000000000000153b      0x204 CMakeFiles/Project.elf.dir/Lib/Src/stm32f10x_rcc.c.obj
 .debug_abbrev  0x000000000000173f      0x1dc CMakeFiles/Project.elf.dir/Lib/Src/stm32f10x_usart.c.obj
 .debug_abbrev  0x000000000000191b       0x12 CMakeFiles/Project.elf.dir/Project/Code-Cmake/startup_stm32f10x_md.s.obj
 .debug_abbrev  0x000000000000192d       0x44 CMakeFiles/Project.elf.dir/Start/Src/stm32f10x_it.c.obj
 .debug_abbrev  0x0000000000001971      0x1b8 CMakeFiles/Project.elf.dir/Start/Src/system_stm32f10x.c.obj
 .debug_abbrev  0x0000000000001b29       0xe8 CMakeFiles/Project.elf.dir/System/Src/Delay.c.obj
 .debug_abbrev  0x0000000000001c11      0x109 CMakeFiles/Project.elf.dir/User/main.c.obj
 .debug_abbrev  0x0000000000001d1a       0x14 /usr/lib/gcc/arm-none-eabi/10.3.1/thumb/v7-m/nofp/libgcc.a(_arm_addsubdf3.o)
 .debug_abbrev  0x0000000000001d2e       0x14 /usr/lib/gcc/arm-none-eabi/10.3.1/thumb/v7-m/nofp/libgcc.a(_arm_muldivdf3.o)
 .debug_abbrev  0x0000000000001d42       0x14 /usr/lib/gcc/arm-none-eabi/10.3.1/thumb/v7-m/nofp/libgcc.a(_arm_truncdfsf2.o)
 .debug_abbrev  0x0000000000001d56       0x14 /usr/lib/gcc/arm-none-eabi/10.3.1/thumb/v7-m/nofp/libgcc.a(_arm_addsubsf3.o)
 .debug_abbrev  0x0000000000001d6a      0x151 /usr/lib/gcc/arm-none-eabi/10.3.1/../../../arm-none-eabi/lib/thumb/v7-m/nofp/libc_nano.a(lib_a-impure.o)
 .debug_abbrev  0x0000000000001ebb       0xb4 /usr/lib/gcc/arm-none-eabi/10.3.1/../../../arm-none-eabi/lib/thumb/v7-m/nofp/libc_nano.a(lib_a-memset.o)
 .debug_abbrev  0x0000000000001f6f      0x2ce /usr/lib/gcc/arm-none-eabi/10.3.1/../../../arm-none-eabi/lib/thumb/v7-m/nofp/libc_nano.a(lib_a-nano-vfprintf_float.o)
 .debug_abbrev  0x000000000000223d      0x25c /usr/lib/gcc/arm-none-eabi/10.3.1/../../../arm-none-eabi/lib/thumb/v7-m/nofp/libc_nano.a(lib_a-nano-vfprintf_i.o)
 .debug_abbrev  0x0000000000002499      0x23e /usr/lib/gcc/arm-none-eabi/10.3.1/../../../arm-none-eabi/lib/thumb/v7-m/nofp/libc_nano.a(lib_a-printf.o)
 .debug_abbrev  0x00000000000026d7      0x28e /usr/lib/gcc/arm-none-eabi/10.3.1/../../../arm-none-eabi/lib/thumb/v7-m/nofp/libc_nano.a(lib_a-puts.o)
 .debug_abbrev  0x0000000000002965      0x213 /usr/lib/gcc/arm-none-eabi/10.3.1/../../../arm-none-eabi/lib/thumb/v7-m/nofp/libc_nano.a(lib_a-sprintf.o)
 .debug_abbrev  0x0000000000002b78       0x7b /usr/lib/gcc/arm-none-eabi/10.3.1/../../../arm-none-eabi/lib/thumb/v7-m/nofp/libc_nano.a(lib_a-strcpy.o)
 .debug_abbrev  0x0000000000002bf3       0x79 /usr/lib/gcc/arm-none-eabi/10.3.1/../../../arm-none-eabi/lib/thumb/v7-m/nofp/libc_nano.a(lib_a-strlen-stub.o)
 .debug_abbrev  0x0000000000002c6c      0x246 /usr/lib/gcc/arm-none-eabi/10.3.1/../../../arm-none-eabi/lib/thumb/v7-m/nofp/libc_nano.a(lib_a-strstr.o)
 .debug_abbrev  0x0000000000002eb2      0x21f /usr/lib/gcc/arm-none-eabi/10.3.1/../../../arm-none-eabi/lib/thumb/v7-m/nofp/libc_nano.a(lib_a-wbuf.o)
 .debug_abbrev  0x00000000000030d1      0x1d4 /usr/lib/gcc/arm-none-eabi/10.3.1/../../../arm-none-eabi/lib/thumb/v7-m/nofp/libc_nano.a(lib_a-wsetup.o)
 .debug_abbrev  0x00000000000032a5      0x2e9 /usr/lib/gcc/arm-none-eabi/10.3.1/../../../arm-none-eabi/lib/thumb/v7-m/nofp/libc_nano.a(lib_a-dtoa.o)
 .debug_abbrev  0x000000000000358e      0x2da /usr/lib/gcc/arm-none-eabi/10.3.1/../../../arm-none-eabi/lib/thumb/v7-m/nofp/libc_nano.a(lib_a-fflush.o)
 .debug_abbrev  0x0000000000003868      0x3cd /usr/lib/gcc/arm-none-eabi/10.3.1/../../../arm-none-eabi/lib/thumb/v7-m/nofp/libc_nano.a(lib_a-findfp.o)
 .debug_abbrev  0x0000000000003c35      0x197 /usr/lib/gcc/arm-none-eabi/10.3.1/../../../arm-none-eabi/lib/thumb/v7-m/nofp/libc_nano.a(lib_a-fwalk.o)
 .debug_abbrev  0x0000000000003dcc      0x225 /usr/lib/gcc/arm-none-eabi/10.3.1/../../../arm-none-eabi/lib/thumb/v7-m/nofp/libc_nano.a(lib_a-localeconv.o)
 .debug_abbrev  0x0000000000003ff1      0x278 /usr/lib/gcc/arm-none-eabi/10.3.1/../../../arm-none-eabi/lib/thumb/v7-m/nofp/libc_nano.a(lib_a-makebuf.o)
 .debug_abbrev  0x0000000000004269      0x1b6 /usr/lib/gcc/arm-none-eabi/10.3.1/../../../arm-none-eabi/lib/thumb/v7-m/nofp/libc_nano.a(lib_a-malloc.o)
 .debug_abbrev  0x000000000000441f       0xd4 /usr/lib/gcc/arm-none-eabi/10.3.1/../../../arm-none-eabi/lib/thumb/v7-m/nofp/libc_nano.a(lib_a-memchr-stub.o)
 .debug_abbrev  0x00000000000044f3       0x8d /usr/lib/gcc/arm-none-eabi/10.3.1/../../../arm-none-eabi/lib/thumb/v7-m/nofp/libc_nano.a(lib_a-memcmp.o)
 .debug_abbrev  0x0000000000004580       0x14 /usr/lib/gcc/arm-none-eabi/10.3.1/../../../arm-none-eabi/lib/thumb/v7-m/nofp/libc_nano.a(lib_a-memcpy.o)
 .debug_abbrev  0x0000000000004594      0x415 /usr/lib/gcc/arm-none-eabi/10.3.1/../../../arm-none-eabi/lib/thumb/v7-m/nofp/libc_nano.a(lib_a-mprec.o)
 .debug_abbrev  0x00000000000049a9      0x1b9 /usr/lib/gcc/arm-none-eabi/10.3.1/../../../arm-none-eabi/lib/thumb/v7-m/nofp/libc_nano.a(lib_a-nano-callocr.o)
 .debug_abbrev  0x0000000000004b62      0x245 /usr/lib/gcc/arm-none-eabi/10.3.1/../../../arm-none-eabi/lib/thumb/v7-m/nofp/libc_nano.a(lib_a-nano-freer.o)
 .debug_abbrev  0x0000000000004da7      0x290 /usr/lib/gcc/arm-none-eabi/10.3.1/../../../arm-none-eabi/lib/thumb/v7-m/nofp/libc_nano.a(lib_a-nano-mallocr.o)
 .debug_abbrev  0x0000000000005037      0x2ca /usr/lib/gcc/arm-none-eabi/10.3.1/../../../arm-none-eabi/lib/thumb/v7-m/nofp/libc_nano.a(lib_a-nano-svfprintf.o)
 .debug_abbrev  0x0000000000005301      0x358 /usr/lib/gcc/arm-none-eabi/10.3.1/../../../arm-none-eabi/lib/thumb/v7-m/nofp/libc_nano.a(lib_a-nano-vfprintf.o)
 .debug_abbrev  0x0000000000005659      0x1d6 /usr/lib/gcc/arm-none-eabi/10.3.1/../../../arm-none-eabi/lib/thumb/v7-m/nofp/libc_nano.a(lib_a-sbrkr.o)
 .debug_abbrev  0x000000000000582f      0x1fb /usr/lib/gcc/arm-none-eabi/10.3.1/../../../arm-none-eabi/lib/thumb/v7-m/nofp/libc_nano.a(lib_a-stdio.o)
 .debug_abbrev  0x0000000000005a2a       0x94 /usr/lib/gcc/arm-none-eabi/10.3.1/../../../arm-none-eabi/lib/thumb/v7-m/nofp/libc_nano.a(lib_a-strchr.o)
 .debug_abbrev  0x0000000000005abe       0x8d /usr/lib/gcc/arm-none-eabi/10.3.1/../../../arm-none-eabi/lib/thumb/v7-m/nofp/libc_nano.a(lib_a-strnlen.o)
 .debug_abbrev  0x0000000000005b4b      0x1b0 /usr/lib/gcc/arm-none-eabi/10.3.1/../../../arm-none-eabi/lib/thumb/v7-m/nofp/libc_nano.a(lib_a-writer.o)
 .debug_abbrev  0x0000000000005cfb      0x1c3 /usr/lib/gcc/arm-none-eabi/10.3.1/../../../arm-none-eabi/lib/thumb/v7-m/nofp/libc_nano.a(lib_a-assert.o)
 .debug_abbrev  0x0000000000005ebe      0x1ab /usr/lib/gcc/arm-none-eabi/10.3.1/../../../arm-none-eabi/lib/thumb/v7-m/nofp/libc_nano.a(lib_a-closer.o)
 .debug_abbrev  0x0000000000006069      0x213 /usr/lib/gcc/arm-none-eabi/10.3.1/../../../arm-none-eabi/lib/thumb/v7-m/nofp/libc_nano.a(lib_a-fprintf.o)
 .debug_abbrev  0x000000000000627c      0x1bf /usr/lib/gcc/arm-none-eabi/10.3.1/../../../arm-none-eabi/lib/thumb/v7-m/nofp/libc_nano.a(lib_a-fstatr.o)
 .debug_abbrev  0x000000000000643b      0x1f4 /usr/lib/gcc/arm-none-eabi/10.3.1/../../../arm-none-eabi/lib/thumb/v7-m/nofp/libc_nano.a(lib_a-fvwrite.o)
 .debug_abbrev  0x000000000000662f      0x1ab /usr/lib/gcc/arm-none-eabi/10.3.1/../../../arm-none-eabi/lib/thumb/v7-m/nofp/libc_nano.a(lib_a-isattyr.o)
 .debug_abbrev  0x00000000000067da      0x2b0 /usr/lib/gcc/arm-none-eabi/10.3.1/../../../arm-none-eabi/lib/thumb/v7-m/nofp/libc_nano.a(lib_a-locale.o)
 .debug_abbrev  0x0000000000006a8a      0x1bf /usr/lib/gcc/arm-none-eabi/10.3.1/../../../arm-none-eabi/lib/thumb/v7-m/nofp/libc_nano.a(lib_a-lseekr.o)
 .debug_abbrev  0x0000000000006c49      0x202 /usr/lib/gcc/arm-none-eabi/10.3.1/../../../arm-none-eabi/lib/thumb/v7-m/nofp/libc_nano.a(lib_a-mbtowc_r.o)
 .debug_abbrev  0x0000000000006e4b       0xc0 /usr/lib/gcc/arm-none-eabi/10.3.1/../../../arm-none-eabi/lib/thumb/v7-m/nofp/libc_nano.a(lib_a-memmove.o)
 .debug_abbrev  0x0000000000006f0b      0x189 /usr/lib/gcc/arm-none-eabi/10.3.1/../../../arm-none-eabi/lib/thumb/v7-m/nofp/libc_nano.a(lib_a-mlock.o)
 .debug_abbrev  0x0000000000007094      0x1d6 /usr/lib/gcc/arm-none-eabi/10.3.1/../../../arm-none-eabi/lib/thumb/v7-m/nofp/libc_nano.a(lib_a-nano-reallocr.o)
 .debug_abbrev  0x000000000000726a      0x1ab /usr/lib/gcc/arm-none-eabi/10.3.1/../../../arm-none-eabi/lib/thumb/v7-m/nofp/libc_nano.a(lib_a-readr.o)
 .debug_abbrev  0x0000000000007415      0x265 /usr/lib/gcc/arm-none-eabi/10.3.1/../../../arm-none-eabi/lib/thumb/v7-m/nofp/libc_nano.a(lib_a-reent.o)
 .debug_abbrev  0x000000000000767a      0x1fb /usr/lib/gcc/arm-none-eabi/10.3.1/../../../arm-none-eabi/lib/thumb/v7-m/nofp/libc_nano.a(lib_a-wctomb_r.o)
 .debug_abbrev  0x0000000000007875       0x80 /usr/lib/gcc/arm-none-eabi/10.3.1/../../../arm-none-eabi/lib/thumb/v7-m/nofp/libc_nano.a(lib_a-abort.o)
 .debug_abbrev  0x00000000000078f5       0x62 /usr/lib/gcc/arm-none-eabi/10.3.1/../../../arm-none-eabi/lib/thumb/v7-m/nofp/libc_nano.a(lib_a-ctype_.o)
 .debug_abbrev  0x0000000000007957      0x191 /usr/lib/gcc/arm-none-eabi/10.3.1/../../../arm-none-eabi/lib/thumb/v7-m/nofp/libc_nano.a(lib_a-nano-msizer.o)
 .debug_abbrev  0x0000000000007ae8      0x2ba /usr/lib/gcc/arm-none-eabi/10.3.1/../../../arm-none-eabi/lib/thumb/v7-m/nofp/libc_nano.a(lib_a-signal.o)
 .debug_abbrev  0x0000000000007da2      0x1db /usr/lib/gcc/arm-none-eabi/10.3.1/../../../arm-none-eabi/lib/thumb/v7-m/nofp/libc_nano.a(lib_a-signalr.o)
 .debug_abbrev  0x0000000000007f7d       0x14 /usr/lib/gcc/arm-none-eabi/10.3.1/thumb/v7-m/nofp/libgcc.a(_arm_cmpdf2.o)
 .debug_abbrev  0x0000000000007f91       0x14 /usr/lib/gcc/arm-none-eabi/10.3.1/thumb/v7-m/nofp/libgcc.a(_arm_unorddf2.o)
 .debug_abbrev  0x0000000000007fa5       0x14 /usr/lib/gcc/arm-none-eabi/10.3.1/thumb/v7-m/nofp/libgcc.a(_arm_fixdfsi.o)
 .debug_abbrev  0x0000000000007fb9       0x6d /usr/lib/gcc/arm-none-eabi/10.3.1/../../../arm-none-eabi/lib/thumb/v7-m/nofp/libnosys.a(close.o)
 .debug_abbrev  0x0000000000008026       0xcc /usr/lib/gcc/arm-none-eabi/10.3.1/../../../arm-none-eabi/lib/thumb/v7-m/nofp/libnosys.a(fstat.o)
 .debug_abbrev  0x00000000000080f2       0x59 /usr/lib/gcc/arm-none-eabi/10.3.1/../../../arm-none-eabi/lib/thumb/v7-m/nofp/libnosys.a(getpid.o)
 .debug_abbrev  0x000000000000814b       0x6d /usr/lib/gcc/arm-none-eabi/10.3.1/../../../arm-none-eabi/lib/thumb/v7-m/nofp/libnosys.a(isatty.o)
 .debug_abbrev  0x00000000000081b8       0x7e /usr/lib/gcc/arm-none-eabi/10.3.1/../../../arm-none-eabi/lib/thumb/v7-m/nofp/libnosys.a(kill.o)
 .debug_abbrev  0x0000000000008236       0x92 /usr/lib/gcc/arm-none-eabi/10.3.1/../../../arm-none-eabi/lib/thumb/v7-m/nofp/libnosys.a(lseek.o)
 .debug_abbrev  0x00000000000082c8       0x9b /usr/lib/gcc/arm-none-eabi/10.3.1/../../../arm-none-eabi/lib/thumb/v7-m/nofp/libnosys.a(read.o)
 .debug_abbrev  0x0000000000008363       0xa2 /usr/lib/gcc/arm-none-eabi/10.3.1/../../../arm-none-eabi/lib/thumb/v7-m/nofp/libnosys.a(sbrk.o)
 .debug_abbrev  0x0000000000008405       0x6a /usr/lib/gcc/arm-none-eabi/10.3.1/../../../arm-none-eabi/lib/thumb/v7-m/nofp/libnosys.a(_exit.o)

.debug_aranges  0x0000000000000000     0x10d8
 .debug_aranges
                0x0000000000000000       0x30 CMakeFiles/Project.elf.dir/Code/Src/GPS.c.obj
 .debug_aranges
                0x0000000000000030       0x60 CMakeFiles/Project.elf.dir/Code/Src/GPS_Usart.c.obj
 .debug_aranges
                0x0000000000000090       0xb0 CMakeFiles/Project.elf.dir/Code/Src/I2COLED.c.obj
 .debug_aranges
                0x0000000000000140       0x68 CMakeFiles/Project.elf.dir/Code/Src/NBIOT_Usart.c.obj
 .debug_aranges
                0x00000000000001a8       0x58 CMakeFiles/Project.elf.dir/Code/Src/OLED.c.obj
 .debug_aranges
                0x0000000000000200       0x78 CMakeFiles/Project.elf.dir/Code/Src/OneWrite.c.obj
 .debug_aranges
                0x0000000000000278       0x58 CMakeFiles/Project.elf.dir/Code/Src/Usart.c.obj
 .debug_aranges
                0x00000000000002d0       0x48 CMakeFiles/Project.elf.dir/Code/Src/nbiot.c.obj
 .debug_aranges
                0x0000000000000318       0x40 CMakeFiles/Project.elf.dir/Lib/Src/misc.c.obj
 .debug_aranges
                0x0000000000000358       0xa8 CMakeFiles/Project.elf.dir/Lib/Src/stm32f10x_gpio.c.obj
 .debug_aranges
                0x0000000000000400      0x120 CMakeFiles/Project.elf.dir/Lib/Src/stm32f10x_i2c.c.obj
 .debug_aranges
                0x0000000000000520      0x118 CMakeFiles/Project.elf.dir/Lib/Src/stm32f10x_rcc.c.obj
 .debug_aranges
                0x0000000000000638      0x100 CMakeFiles/Project.elf.dir/Lib/Src/stm32f10x_usart.c.obj
 .debug_aranges
                0x0000000000000738       0x28 CMakeFiles/Project.elf.dir/Project/Code-Cmake/startup_stm32f10x_md.s.obj
 .debug_aranges
                0x0000000000000760       0x60 CMakeFiles/Project.elf.dir/Start/Src/stm32f10x_it.c.obj
 .debug_aranges
                0x00000000000007c0       0x38 CMakeFiles/Project.elf.dir/Start/Src/system_stm32f10x.c.obj
 .debug_aranges
                0x00000000000007f8       0x30 CMakeFiles/Project.elf.dir/System/Src/Delay.c.obj
 .debug_aranges
                0x0000000000000828       0x20 CMakeFiles/Project.elf.dir/User/main.c.obj
 .debug_aranges
                0x0000000000000848       0x20 /usr/lib/gcc/arm-none-eabi/10.3.1/thumb/v7-m/nofp/libgcc.a(_arm_addsubdf3.o)
 .debug_aranges
                0x0000000000000868       0x20 /usr/lib/gcc/arm-none-eabi/10.3.1/thumb/v7-m/nofp/libgcc.a(_arm_muldivdf3.o)
 .debug_aranges
                0x0000000000000888       0x20 /usr/lib/gcc/arm-none-eabi/10.3.1/thumb/v7-m/nofp/libgcc.a(_arm_truncdfsf2.o)
 .debug_aranges
                0x00000000000008a8       0x20 /usr/lib/gcc/arm-none-eabi/10.3.1/thumb/v7-m/nofp/libgcc.a(_arm_addsubsf3.o)
 .debug_aranges
                0x00000000000008c8       0x18 /usr/lib/gcc/arm-none-eabi/10.3.1/../../../arm-none-eabi/lib/thumb/v7-m/nofp/libc_nano.a(lib_a-impure.o)
 .debug_aranges
                0x00000000000008e0       0x20 /usr/lib/gcc/arm-none-eabi/10.3.1/../../../arm-none-eabi/lib/thumb/v7-m/nofp/libc_nano.a(lib_a-memset.o)
 .debug_aranges
                0x0000000000000900       0x20 /usr/lib/gcc/arm-none-eabi/10.3.1/../../../arm-none-eabi/lib/thumb/v7-m/nofp/libc_nano.a(lib_a-nano-vfprintf_float.o)
 .debug_aranges
                0x0000000000000920       0x20 /usr/lib/gcc/arm-none-eabi/10.3.1/../../../arm-none-eabi/lib/thumb/v7-m/nofp/libc_nano.a(lib_a-nano-vfprintf_i.o)
 .debug_aranges
                0x0000000000000940       0x20 /usr/lib/gcc/arm-none-eabi/10.3.1/../../../arm-none-eabi/lib/thumb/v7-m/nofp/libc_nano.a(lib_a-printf.o)
 .debug_aranges
                0x0000000000000960       0x20 /usr/lib/gcc/arm-none-eabi/10.3.1/../../../arm-none-eabi/lib/thumb/v7-m/nofp/libc_nano.a(lib_a-puts.o)
 .debug_aranges
                0x0000000000000980       0x20 /usr/lib/gcc/arm-none-eabi/10.3.1/../../../arm-none-eabi/lib/thumb/v7-m/nofp/libc_nano.a(lib_a-sprintf.o)
 .debug_aranges
                0x00000000000009a0       0x20 /usr/lib/gcc/arm-none-eabi/10.3.1/../../../arm-none-eabi/lib/thumb/v7-m/nofp/libc_nano.a(lib_a-strcpy.o)
 .debug_aranges
                0x00000000000009c0       0x20 /usr/lib/gcc/arm-none-eabi/10.3.1/../../../arm-none-eabi/lib/thumb/v7-m/nofp/libc_nano.a(lib_a-strlen-stub.o)
 .debug_aranges
                0x00000000000009e0       0x20 /usr/lib/gcc/arm-none-eabi/10.3.1/../../../arm-none-eabi/lib/thumb/v7-m/nofp/libc_nano.a(lib_a-strstr.o)
 .debug_aranges
                0x0000000000000a00       0x20 /usr/lib/gcc/arm-none-eabi/10.3.1/../../../arm-none-eabi/lib/thumb/v7-m/nofp/libc_nano.a(lib_a-wbuf.o)
 .debug_aranges
                0x0000000000000a20       0x20 /usr/lib/gcc/arm-none-eabi/10.3.1/../../../arm-none-eabi/lib/thumb/v7-m/nofp/libc_nano.a(lib_a-wsetup.o)
 .debug_aranges
                0x0000000000000a40       0x20 /usr/lib/gcc/arm-none-eabi/10.3.1/../../../arm-none-eabi/lib/thumb/v7-m/nofp/libc_nano.a(lib_a-dtoa.o)
 .debug_aranges
                0x0000000000000a60       0x20 /usr/lib/gcc/arm-none-eabi/10.3.1/../../../arm-none-eabi/lib/thumb/v7-m/nofp/libc_nano.a(lib_a-fflush.o)
 .debug_aranges
                0x0000000000000a80       0x20 /usr/lib/gcc/arm-none-eabi/10.3.1/../../../arm-none-eabi/lib/thumb/v7-m/nofp/libc_nano.a(lib_a-findfp.o)
 .debug_aranges
                0x0000000000000aa0       0x20 /usr/lib/gcc/arm-none-eabi/10.3.1/../../../arm-none-eabi/lib/thumb/v7-m/nofp/libc_nano.a(lib_a-fwalk.o)
 .debug_aranges
                0x0000000000000ac0       0x20 /usr/lib/gcc/arm-none-eabi/10.3.1/../../../arm-none-eabi/lib/thumb/v7-m/nofp/libc_nano.a(lib_a-localeconv.o)
 .debug_aranges
                0x0000000000000ae0       0x20 /usr/lib/gcc/arm-none-eabi/10.3.1/../../../arm-none-eabi/lib/thumb/v7-m/nofp/libc_nano.a(lib_a-makebuf.o)
 .debug_aranges
                0x0000000000000b00       0x20 /usr/lib/gcc/arm-none-eabi/10.3.1/../../../arm-none-eabi/lib/thumb/v7-m/nofp/libc_nano.a(lib_a-malloc.o)
 .debug_aranges
                0x0000000000000b20       0x20 /usr/lib/gcc/arm-none-eabi/10.3.1/../../../arm-none-eabi/lib/thumb/v7-m/nofp/libc_nano.a(lib_a-memchr-stub.o)
 .debug_aranges
                0x0000000000000b40       0x20 /usr/lib/gcc/arm-none-eabi/10.3.1/../../../arm-none-eabi/lib/thumb/v7-m/nofp/libc_nano.a(lib_a-memcmp.o)
 .debug_aranges
                0x0000000000000b60       0x20 /usr/lib/gcc/arm-none-eabi/10.3.1/../../../arm-none-eabi/lib/thumb/v7-m/nofp/libc_nano.a(lib_a-memcpy.o)
 .debug_aranges
                0x0000000000000b80       0x20 /usr/lib/gcc/arm-none-eabi/10.3.1/../../../arm-none-eabi/lib/thumb/v7-m/nofp/libc_nano.a(lib_a-mprec.o)
 .debug_aranges
                0x0000000000000ba0       0x20 /usr/lib/gcc/arm-none-eabi/10.3.1/../../../arm-none-eabi/lib/thumb/v7-m/nofp/libc_nano.a(lib_a-nano-callocr.o)
 .debug_aranges
                0x0000000000000bc0       0x20 /usr/lib/gcc/arm-none-eabi/10.3.1/../../../arm-none-eabi/lib/thumb/v7-m/nofp/libc_nano.a(lib_a-nano-freer.o)
 .debug_aranges
                0x0000000000000be0       0x20 /usr/lib/gcc/arm-none-eabi/10.3.1/../../../arm-none-eabi/lib/thumb/v7-m/nofp/libc_nano.a(lib_a-nano-mallocr.o)
 .debug_aranges
                0x0000000000000c00       0x20 /usr/lib/gcc/arm-none-eabi/10.3.1/../../../arm-none-eabi/lib/thumb/v7-m/nofp/libc_nano.a(lib_a-nano-svfprintf.o)
 .debug_aranges
                0x0000000000000c20       0x20 /usr/lib/gcc/arm-none-eabi/10.3.1/../../../arm-none-eabi/lib/thumb/v7-m/nofp/libc_nano.a(lib_a-nano-vfprintf.o)
 .debug_aranges
                0x0000000000000c40       0x20 /usr/lib/gcc/arm-none-eabi/10.3.1/../../../arm-none-eabi/lib/thumb/v7-m/nofp/libc_nano.a(lib_a-sbrkr.o)
 .debug_aranges
                0x0000000000000c60       0x20 /usr/lib/gcc/arm-none-eabi/10.3.1/../../../arm-none-eabi/lib/thumb/v7-m/nofp/libc_nano.a(lib_a-stdio.o)
 .debug_aranges
                0x0000000000000c80       0x20 /usr/lib/gcc/arm-none-eabi/10.3.1/../../../arm-none-eabi/lib/thumb/v7-m/nofp/libc_nano.a(lib_a-strchr.o)
 .debug_aranges
                0x0000000000000ca0       0x20 /usr/lib/gcc/arm-none-eabi/10.3.1/../../../arm-none-eabi/lib/thumb/v7-m/nofp/libc_nano.a(lib_a-strnlen.o)
 .debug_aranges
                0x0000000000000cc0       0x20 /usr/lib/gcc/arm-none-eabi/10.3.1/../../../arm-none-eabi/lib/thumb/v7-m/nofp/libc_nano.a(lib_a-writer.o)
 .debug_aranges
                0x0000000000000ce0       0x20 /usr/lib/gcc/arm-none-eabi/10.3.1/../../../arm-none-eabi/lib/thumb/v7-m/nofp/libc_nano.a(lib_a-assert.o)
 .debug_aranges
                0x0000000000000d00       0x20 /usr/lib/gcc/arm-none-eabi/10.3.1/../../../arm-none-eabi/lib/thumb/v7-m/nofp/libc_nano.a(lib_a-closer.o)
 .debug_aranges
                0x0000000000000d20       0x20 /usr/lib/gcc/arm-none-eabi/10.3.1/../../../arm-none-eabi/lib/thumb/v7-m/nofp/libc_nano.a(lib_a-fprintf.o)
 .debug_aranges
                0x0000000000000d40       0x20 /usr/lib/gcc/arm-none-eabi/10.3.1/../../../arm-none-eabi/lib/thumb/v7-m/nofp/libc_nano.a(lib_a-fstatr.o)
 .debug_aranges
                0x0000000000000d60       0x20 /usr/lib/gcc/arm-none-eabi/10.3.1/../../../arm-none-eabi/lib/thumb/v7-m/nofp/libc_nano.a(lib_a-fvwrite.o)
 .debug_aranges
                0x0000000000000d80       0x20 /usr/lib/gcc/arm-none-eabi/10.3.1/../../../arm-none-eabi/lib/thumb/v7-m/nofp/libc_nano.a(lib_a-isattyr.o)
 .debug_aranges
                0x0000000000000da0       0x20 /usr/lib/gcc/arm-none-eabi/10.3.1/../../../arm-none-eabi/lib/thumb/v7-m/nofp/libc_nano.a(lib_a-locale.o)
 .debug_aranges
                0x0000000000000dc0       0x20 /usr/lib/gcc/arm-none-eabi/10.3.1/../../../arm-none-eabi/lib/thumb/v7-m/nofp/libc_nano.a(lib_a-lseekr.o)
 .debug_aranges
                0x0000000000000de0       0x20 /usr/lib/gcc/arm-none-eabi/10.3.1/../../../arm-none-eabi/lib/thumb/v7-m/nofp/libc_nano.a(lib_a-mbtowc_r.o)
 .debug_aranges
                0x0000000000000e00       0x20 /usr/lib/gcc/arm-none-eabi/10.3.1/../../../arm-none-eabi/lib/thumb/v7-m/nofp/libc_nano.a(lib_a-memmove.o)
 .debug_aranges
                0x0000000000000e20       0x20 /usr/lib/gcc/arm-none-eabi/10.3.1/../../../arm-none-eabi/lib/thumb/v7-m/nofp/libc_nano.a(lib_a-mlock.o)
 .debug_aranges
                0x0000000000000e40       0x20 /usr/lib/gcc/arm-none-eabi/10.3.1/../../../arm-none-eabi/lib/thumb/v7-m/nofp/libc_nano.a(lib_a-nano-reallocr.o)
 .debug_aranges
                0x0000000000000e60       0x20 /usr/lib/gcc/arm-none-eabi/10.3.1/../../../arm-none-eabi/lib/thumb/v7-m/nofp/libc_nano.a(lib_a-readr.o)
 .debug_aranges
                0x0000000000000e80       0x20 /usr/lib/gcc/arm-none-eabi/10.3.1/../../../arm-none-eabi/lib/thumb/v7-m/nofp/libc_nano.a(lib_a-reent.o)
 .debug_aranges
                0x0000000000000ea0       0x20 /usr/lib/gcc/arm-none-eabi/10.3.1/../../../arm-none-eabi/lib/thumb/v7-m/nofp/libc_nano.a(lib_a-wctomb_r.o)
 .debug_aranges
                0x0000000000000ec0       0x20 /usr/lib/gcc/arm-none-eabi/10.3.1/../../../arm-none-eabi/lib/thumb/v7-m/nofp/libc_nano.a(lib_a-abort.o)
 .debug_aranges
                0x0000000000000ee0       0x18 /usr/lib/gcc/arm-none-eabi/10.3.1/../../../arm-none-eabi/lib/thumb/v7-m/nofp/libc_nano.a(lib_a-ctype_.o)
 .debug_aranges
                0x0000000000000ef8       0x20 /usr/lib/gcc/arm-none-eabi/10.3.1/../../../arm-none-eabi/lib/thumb/v7-m/nofp/libc_nano.a(lib_a-nano-msizer.o)
 .debug_aranges
                0x0000000000000f18       0x20 /usr/lib/gcc/arm-none-eabi/10.3.1/../../../arm-none-eabi/lib/thumb/v7-m/nofp/libc_nano.a(lib_a-signal.o)
 .debug_aranges
                0x0000000000000f38       0x20 /usr/lib/gcc/arm-none-eabi/10.3.1/../../../arm-none-eabi/lib/thumb/v7-m/nofp/libc_nano.a(lib_a-signalr.o)
 .debug_aranges
                0x0000000000000f58       0x20 /usr/lib/gcc/arm-none-eabi/10.3.1/thumb/v7-m/nofp/libgcc.a(_arm_cmpdf2.o)
 .debug_aranges
                0x0000000000000f78       0x20 /usr/lib/gcc/arm-none-eabi/10.3.1/thumb/v7-m/nofp/libgcc.a(_arm_unorddf2.o)
 .debug_aranges
                0x0000000000000f98       0x20 /usr/lib/gcc/arm-none-eabi/10.3.1/thumb/v7-m/nofp/libgcc.a(_arm_fixdfsi.o)
 .debug_aranges
                0x0000000000000fb8       0x20 /usr/lib/gcc/arm-none-eabi/10.3.1/../../../arm-none-eabi/lib/thumb/v7-m/nofp/libnosys.a(close.o)
 .debug_aranges
                0x0000000000000fd8       0x20 /usr/lib/gcc/arm-none-eabi/10.3.1/../../../arm-none-eabi/lib/thumb/v7-m/nofp/libnosys.a(fstat.o)
 .debug_aranges
                0x0000000000000ff8       0x20 /usr/lib/gcc/arm-none-eabi/10.3.1/../../../arm-none-eabi/lib/thumb/v7-m/nofp/libnosys.a(getpid.o)
 .debug_aranges
                0x0000000000001018       0x20 /usr/lib/gcc/arm-none-eabi/10.3.1/../../../arm-none-eabi/lib/thumb/v7-m/nofp/libnosys.a(isatty.o)
 .debug_aranges
                0x0000000000001038       0x20 /usr/lib/gcc/arm-none-eabi/10.3.1/../../../arm-none-eabi/lib/thumb/v7-m/nofp/libnosys.a(kill.o)
 .debug_aranges
                0x0000000000001058       0x20 /usr/lib/gcc/arm-none-eabi/10.3.1/../../../arm-none-eabi/lib/thumb/v7-m/nofp/libnosys.a(lseek.o)
 .debug_aranges
                0x0000000000001078       0x20 /usr/lib/gcc/arm-none-eabi/10.3.1/../../../arm-none-eabi/lib/thumb/v7-m/nofp/libnosys.a(read.o)
 .debug_aranges
                0x0000000000001098       0x20 /usr/lib/gcc/arm-none-eabi/10.3.1/../../../arm-none-eabi/lib/thumb/v7-m/nofp/libnosys.a(sbrk.o)
 .debug_aranges
                0x00000000000010b8       0x20 /usr/lib/gcc/arm-none-eabi/10.3.1/../../../arm-none-eabi/lib/thumb/v7-m/nofp/libnosys.a(_exit.o)

.debug_ranges   0x0000000000000000     0x1180
 .debug_ranges  0x0000000000000000       0x20 CMakeFiles/Project.elf.dir/Code/Src/GPS.c.obj
 .debug_ranges  0x0000000000000020       0x68 CMakeFiles/Project.elf.dir/Code/Src/GPS_Usart.c.obj
 .debug_ranges  0x0000000000000088       0xa0 CMakeFiles/Project.elf.dir/Code/Src/I2COLED.c.obj
 .debug_ranges  0x0000000000000128       0x70 CMakeFiles/Project.elf.dir/Code/Src/NBIOT_Usart.c.obj
 .debug_ranges  0x0000000000000198       0x48 CMakeFiles/Project.elf.dir/Code/Src/OLED.c.obj
 .debug_ranges  0x00000000000001e0       0x68 CMakeFiles/Project.elf.dir/Code/Src/OneWrite.c.obj
 .debug_ranges  0x0000000000000248       0x60 CMakeFiles/Project.elf.dir/Code/Src/Usart.c.obj
 .debug_ranges  0x00000000000002a8       0x38 CMakeFiles/Project.elf.dir/Code/Src/nbiot.c.obj
 .debug_ranges  0x00000000000002e0       0x30 CMakeFiles/Project.elf.dir/Lib/Src/misc.c.obj
 .debug_ranges  0x0000000000000310       0x98 CMakeFiles/Project.elf.dir/Lib/Src/stm32f10x_gpio.c.obj
 .debug_ranges  0x00000000000003a8      0x110 CMakeFiles/Project.elf.dir/Lib/Src/stm32f10x_i2c.c.obj
 .debug_ranges  0x00000000000004b8      0x108 CMakeFiles/Project.elf.dir/Lib/Src/stm32f10x_rcc.c.obj
 .debug_ranges  0x00000000000005c0       0xf0 CMakeFiles/Project.elf.dir/Lib/Src/stm32f10x_usart.c.obj
 .debug_ranges  0x00000000000006b0       0x20 CMakeFiles/Project.elf.dir/Project/Code-Cmake/startup_stm32f10x_md.s.obj
 .debug_ranges  0x00000000000006d0       0x50 CMakeFiles/Project.elf.dir/Start/Src/stm32f10x_it.c.obj
 .debug_ranges  0x0000000000000720       0x28 CMakeFiles/Project.elf.dir/Start/Src/system_stm32f10x.c.obj
 .debug_ranges  0x0000000000000748       0x20 CMakeFiles/Project.elf.dir/System/Src/Delay.c.obj
 .debug_ranges  0x0000000000000768       0x10 CMakeFiles/Project.elf.dir/User/main.c.obj
 .debug_ranges  0x0000000000000778      0x110 /usr/lib/gcc/arm-none-eabi/10.3.1/../../../arm-none-eabi/lib/thumb/v7-m/nofp/libc_nano.a(lib_a-nano-vfprintf_float.o)
 .debug_ranges  0x0000000000000888       0xa8 /usr/lib/gcc/arm-none-eabi/10.3.1/../../../arm-none-eabi/lib/thumb/v7-m/nofp/libc_nano.a(lib_a-nano-vfprintf_i.o)
 .debug_ranges  0x0000000000000930       0x60 /usr/lib/gcc/arm-none-eabi/10.3.1/../../../arm-none-eabi/lib/thumb/v7-m/nofp/libc_nano.a(lib_a-puts.o)
 .debug_ranges  0x0000000000000990       0x10 /usr/lib/gcc/arm-none-eabi/10.3.1/../../../arm-none-eabi/lib/thumb/v7-m/nofp/libc_nano.a(lib_a-strcpy.o)
 .debug_ranges  0x00000000000009a0       0x10 /usr/lib/gcc/arm-none-eabi/10.3.1/../../../arm-none-eabi/lib/thumb/v7-m/nofp/libc_nano.a(lib_a-strlen-stub.o)
 .debug_ranges  0x00000000000009b0       0xc0 /usr/lib/gcc/arm-none-eabi/10.3.1/../../../arm-none-eabi/lib/thumb/v7-m/nofp/libc_nano.a(lib_a-strstr.o)
 .debug_ranges  0x0000000000000a70       0x28 /usr/lib/gcc/arm-none-eabi/10.3.1/../../../arm-none-eabi/lib/thumb/v7-m/nofp/libc_nano.a(lib_a-wbuf.o)
 .debug_ranges  0x0000000000000a98       0x30 /usr/lib/gcc/arm-none-eabi/10.3.1/../../../arm-none-eabi/lib/thumb/v7-m/nofp/libc_nano.a(lib_a-wsetup.o)
 .debug_ranges  0x0000000000000ac8       0x70 /usr/lib/gcc/arm-none-eabi/10.3.1/../../../arm-none-eabi/lib/thumb/v7-m/nofp/libc_nano.a(lib_a-dtoa.o)
 .debug_ranges  0x0000000000000b38       0xb8 /usr/lib/gcc/arm-none-eabi/10.3.1/../../../arm-none-eabi/lib/thumb/v7-m/nofp/libc_nano.a(lib_a-fflush.o)
 .debug_ranges  0x0000000000000bf0      0x140 /usr/lib/gcc/arm-none-eabi/10.3.1/../../../arm-none-eabi/lib/thumb/v7-m/nofp/libc_nano.a(lib_a-findfp.o)
 .debug_ranges  0x0000000000000d30       0xa8 /usr/lib/gcc/arm-none-eabi/10.3.1/../../../arm-none-eabi/lib/thumb/v7-m/nofp/libc_nano.a(lib_a-makebuf.o)
 .debug_ranges  0x0000000000000dd8      0x190 /usr/lib/gcc/arm-none-eabi/10.3.1/../../../arm-none-eabi/lib/thumb/v7-m/nofp/libc_nano.a(lib_a-mprec.o)
 .debug_ranges  0x0000000000000f68       0x18 /usr/lib/gcc/arm-none-eabi/10.3.1/../../../arm-none-eabi/lib/thumb/v7-m/nofp/libc_nano.a(lib_a-nano-freer.o)
 .debug_ranges  0x0000000000000f80       0x38 /usr/lib/gcc/arm-none-eabi/10.3.1/../../../arm-none-eabi/lib/thumb/v7-m/nofp/libc_nano.a(lib_a-nano-mallocr.o)
 .debug_ranges  0x0000000000000fb8       0x50 /usr/lib/gcc/arm-none-eabi/10.3.1/../../../arm-none-eabi/lib/thumb/v7-m/nofp/libc_nano.a(lib_a-nano-svfprintf.o)
 .debug_ranges  0x0000000000001008       0x48 /usr/lib/gcc/arm-none-eabi/10.3.1/../../../arm-none-eabi/lib/thumb/v7-m/nofp/libc_nano.a(lib_a-nano-vfprintf.o)
 .debug_ranges  0x0000000000001050       0x10 /usr/lib/gcc/arm-none-eabi/10.3.1/../../../arm-none-eabi/lib/thumb/v7-m/nofp/libc_nano.a(lib_a-strnlen.o)
 .debug_ranges  0x0000000000001060       0x30 /usr/lib/gcc/arm-none-eabi/10.3.1/../../../arm-none-eabi/lib/thumb/v7-m/nofp/libc_nano.a(lib_a-fvwrite.o)
 .debug_ranges  0x0000000000001090       0x28 /usr/lib/gcc/arm-none-eabi/10.3.1/../../../arm-none-eabi/lib/thumb/v7-m/nofp/libc_nano.a(lib_a-locale.o)
 .debug_ranges  0x00000000000010b8       0xc8 /usr/lib/gcc/arm-none-eabi/10.3.1/../../../arm-none-eabi/lib/thumb/v7-m/nofp/libc_nano.a(lib_a-signal.o)

.debug_line     0x0000000000000000    0x111e9
 .debug_line    0x0000000000000000       0xc9 CMakeFiles/Project.elf.dir/Code/Src/GPS.c.obj
 .debug_line    0x00000000000000c9      0x4d2 CMakeFiles/Project.elf.dir/Code/Src/GPS_Usart.c.obj
 .debug_line    0x000000000000059b      0xc64 CMakeFiles/Project.elf.dir/Code/Src/I2COLED.c.obj
 .debug_line    0x00000000000011ff      0x565 CMakeFiles/Project.elf.dir/Code/Src/NBIOT_Usart.c.obj
 .debug_line    0x0000000000001764      0x1d9 CMakeFiles/Project.elf.dir/Code/Src/OLED.c.obj
 .debug_line    0x000000000000193d      0x4e3 CMakeFiles/Project.elf.dir/Code/Src/OneWrite.c.obj
 .debug_line    0x0000000000001e20      0x45a CMakeFiles/Project.elf.dir/Code/Src/Usart.c.obj
 .debug_line    0x000000000000227a      0x2f2 CMakeFiles/Project.elf.dir/Code/Src/nbiot.c.obj
 .debug_line    0x000000000000256c      0x22d CMakeFiles/Project.elf.dir/Lib/Src/misc.c.obj
 .debug_line    0x0000000000002799      0x64b CMakeFiles/Project.elf.dir/Lib/Src/stm32f10x_gpio.c.obj
 .debug_line    0x0000000000002de4      0x8ab CMakeFiles/Project.elf.dir/Lib/Src/stm32f10x_i2c.c.obj
 .debug_line    0x000000000000368f      0x7f9 CMakeFiles/Project.elf.dir/Lib/Src/stm32f10x_rcc.c.obj
 .debug_line    0x0000000000003e88      0x822 CMakeFiles/Project.elf.dir/Lib/Src/stm32f10x_usart.c.obj
 .debug_line    0x00000000000046aa       0xa2 CMakeFiles/Project.elf.dir/Project/Code-Cmake/startup_stm32f10x_md.s.obj
 .debug_line    0x000000000000474c      0x147 CMakeFiles/Project.elf.dir/Start/Src/stm32f10x_it.c.obj
 .debug_line    0x0000000000004893      0x357 CMakeFiles/Project.elf.dir/Start/Src/system_stm32f10x.c.obj
 .debug_line    0x0000000000004bea      0x16c CMakeFiles/Project.elf.dir/System/Src/Delay.c.obj
 .debug_line    0x0000000000004d56      0x1e3 CMakeFiles/Project.elf.dir/User/main.c.obj
 .debug_line    0x0000000000004f39      0x186 /usr/lib/gcc/arm-none-eabi/10.3.1/thumb/v7-m/nofp/libgcc.a(_arm_addsubdf3.o)
 .debug_line    0x00000000000050bf      0x19b /usr/lib/gcc/arm-none-eabi/10.3.1/thumb/v7-m/nofp/libgcc.a(_arm_muldivdf3.o)
 .debug_line    0x000000000000525a       0x8d /usr/lib/gcc/arm-none-eabi/10.3.1/thumb/v7-m/nofp/libgcc.a(_arm_truncdfsf2.o)
 .debug_line    0x00000000000052e7      0x11a /usr/lib/gcc/arm-none-eabi/10.3.1/thumb/v7-m/nofp/libgcc.a(_arm_addsubsf3.o)
 .debug_line    0x0000000000005401       0xe4 /usr/lib/gcc/arm-none-eabi/10.3.1/../../../arm-none-eabi/lib/thumb/v7-m/nofp/libc_nano.a(lib_a-impure.o)
 .debug_line    0x00000000000054e5      0x1bf /usr/lib/gcc/arm-none-eabi/10.3.1/../../../arm-none-eabi/lib/thumb/v7-m/nofp/libc_nano.a(lib_a-memset.o)
 .debug_line    0x00000000000056a4      0xa49 /usr/lib/gcc/arm-none-eabi/10.3.1/../../../arm-none-eabi/lib/thumb/v7-m/nofp/libc_nano.a(lib_a-nano-vfprintf_float.o)
 .debug_line    0x00000000000060ed      0x75e /usr/lib/gcc/arm-none-eabi/10.3.1/../../../arm-none-eabi/lib/thumb/v7-m/nofp/libc_nano.a(lib_a-nano-vfprintf_i.o)
 .debug_line    0x000000000000684b      0x22c /usr/lib/gcc/arm-none-eabi/10.3.1/../../../arm-none-eabi/lib/thumb/v7-m/nofp/libc_nano.a(lib_a-printf.o)
 .debug_line    0x0000000000006a77      0x32c /usr/lib/gcc/arm-none-eabi/10.3.1/../../../arm-none-eabi/lib/thumb/v7-m/nofp/libc_nano.a(lib_a-puts.o)
 .debug_line    0x0000000000006da3      0x218 /usr/lib/gcc/arm-none-eabi/10.3.1/../../../arm-none-eabi/lib/thumb/v7-m/nofp/libc_nano.a(lib_a-sprintf.o)
 .debug_line    0x0000000000006fbb       0xb9 /usr/lib/gcc/arm-none-eabi/10.3.1/../../../arm-none-eabi/lib/thumb/v7-m/nofp/libc_nano.a(lib_a-strcpy.o)
 .debug_line    0x0000000000007074       0xf4 /usr/lib/gcc/arm-none-eabi/10.3.1/../../../arm-none-eabi/lib/thumb/v7-m/nofp/libc_nano.a(lib_a-strlen-stub.o)
 .debug_line    0x0000000000007168      0x7f4 /usr/lib/gcc/arm-none-eabi/10.3.1/../../../arm-none-eabi/lib/thumb/v7-m/nofp/libc_nano.a(lib_a-strstr.o)
 .debug_line    0x000000000000795c      0x27a /usr/lib/gcc/arm-none-eabi/10.3.1/../../../arm-none-eabi/lib/thumb/v7-m/nofp/libc_nano.a(lib_a-wbuf.o)
 .debug_line    0x0000000000007bd6      0x352 /usr/lib/gcc/arm-none-eabi/10.3.1/../../../arm-none-eabi/lib/thumb/v7-m/nofp/libc_nano.a(lib_a-wsetup.o)
 .debug_line    0x0000000000007f28     0x154c /usr/lib/gcc/arm-none-eabi/10.3.1/../../../arm-none-eabi/lib/thumb/v7-m/nofp/libc_nano.a(lib_a-dtoa.o)
 .debug_line    0x0000000000009474      0x494 /usr/lib/gcc/arm-none-eabi/10.3.1/../../../arm-none-eabi/lib/thumb/v7-m/nofp/libc_nano.a(lib_a-fflush.o)
 .debug_line    0x0000000000009908      0x5ab /usr/lib/gcc/arm-none-eabi/10.3.1/../../../arm-none-eabi/lib/thumb/v7-m/nofp/libc_nano.a(lib_a-findfp.o)
 .debug_line    0x0000000000009eb3      0x27a /usr/lib/gcc/arm-none-eabi/10.3.1/../../../arm-none-eabi/lib/thumb/v7-m/nofp/libc_nano.a(lib_a-fwalk.o)
 .debug_line    0x000000000000a12d      0x1bf /usr/lib/gcc/arm-none-eabi/10.3.1/../../../arm-none-eabi/lib/thumb/v7-m/nofp/libc_nano.a(lib_a-localeconv.o)
 .debug_line    0x000000000000a2ec      0x3c2 /usr/lib/gcc/arm-none-eabi/10.3.1/../../../arm-none-eabi/lib/thumb/v7-m/nofp/libc_nano.a(lib_a-makebuf.o)
 .debug_line    0x000000000000a6ae      0x15f /usr/lib/gcc/arm-none-eabi/10.3.1/../../../arm-none-eabi/lib/thumb/v7-m/nofp/libc_nano.a(lib_a-malloc.o)
 .debug_line    0x000000000000a80d      0x1d0 /usr/lib/gcc/arm-none-eabi/10.3.1/../../../arm-none-eabi/lib/thumb/v7-m/nofp/libc_nano.a(lib_a-memchr-stub.o)
 .debug_line    0x000000000000a9dd      0x17a /usr/lib/gcc/arm-none-eabi/10.3.1/../../../arm-none-eabi/lib/thumb/v7-m/nofp/libc_nano.a(lib_a-memcmp.o)
 .debug_line    0x000000000000ab57       0xc1 /usr/lib/gcc/arm-none-eabi/10.3.1/../../../arm-none-eabi/lib/thumb/v7-m/nofp/libc_nano.a(lib_a-memcpy.o)
 .debug_line    0x000000000000ac18     0x1662 /usr/lib/gcc/arm-none-eabi/10.3.1/../../../arm-none-eabi/lib/thumb/v7-m/nofp/libc_nano.a(lib_a-mprec.o)
 .debug_line    0x000000000000c27a      0x170 /usr/lib/gcc/arm-none-eabi/10.3.1/../../../arm-none-eabi/lib/thumb/v7-m/nofp/libc_nano.a(lib_a-nano-callocr.o)
 .debug_line    0x000000000000c3ea      0x2e5 /usr/lib/gcc/arm-none-eabi/10.3.1/../../../arm-none-eabi/lib/thumb/v7-m/nofp/libc_nano.a(lib_a-nano-freer.o)
 .debug_line    0x000000000000c6cf      0x2d6 /usr/lib/gcc/arm-none-eabi/10.3.1/../../../arm-none-eabi/lib/thumb/v7-m/nofp/libc_nano.a(lib_a-nano-mallocr.o)
 .debug_line    0x000000000000c9a5      0x850 /usr/lib/gcc/arm-none-eabi/10.3.1/../../../arm-none-eabi/lib/thumb/v7-m/nofp/libc_nano.a(lib_a-nano-svfprintf.o)
 .debug_line    0x000000000000d1f5      0x6f8 /usr/lib/gcc/arm-none-eabi/10.3.1/../../../arm-none-eabi/lib/thumb/v7-m/nofp/libc_nano.a(lib_a-nano-vfprintf.o)
 .debug_line    0x000000000000d8ed      0x186 /usr/lib/gcc/arm-none-eabi/10.3.1/../../../arm-none-eabi/lib/thumb/v7-m/nofp/libc_nano.a(lib_a-sbrkr.o)
 .debug_line    0x000000000000da73      0x231 /usr/lib/gcc/arm-none-eabi/10.3.1/../../../arm-none-eabi/lib/thumb/v7-m/nofp/libc_nano.a(lib_a-stdio.o)
 .debug_line    0x000000000000dca4      0x1b0 /usr/lib/gcc/arm-none-eabi/10.3.1/../../../arm-none-eabi/lib/thumb/v7-m/nofp/libc_nano.a(lib_a-strchr.o)
 .debug_line    0x000000000000de54      0x120 /usr/lib/gcc/arm-none-eabi/10.3.1/../../../arm-none-eabi/lib/thumb/v7-m/nofp/libc_nano.a(lib_a-strnlen.o)
 .debug_line    0x000000000000df74      0x18d /usr/lib/gcc/arm-none-eabi/10.3.1/../../../arm-none-eabi/lib/thumb/v7-m/nofp/libc_nano.a(lib_a-writer.o)
 .debug_line    0x000000000000e101      0x197 /usr/lib/gcc/arm-none-eabi/10.3.1/../../../arm-none-eabi/lib/thumb/v7-m/nofp/libc_nano.a(lib_a-assert.o)
 .debug_line    0x000000000000e298      0x186 /usr/lib/gcc/arm-none-eabi/10.3.1/../../../arm-none-eabi/lib/thumb/v7-m/nofp/libc_nano.a(lib_a-closer.o)
 .debug_line    0x000000000000e41e      0x1a0 /usr/lib/gcc/arm-none-eabi/10.3.1/../../../arm-none-eabi/lib/thumb/v7-m/nofp/libc_nano.a(lib_a-fprintf.o)
 .debug_line    0x000000000000e5be      0x1fc /usr/lib/gcc/arm-none-eabi/10.3.1/../../../arm-none-eabi/lib/thumb/v7-m/nofp/libc_nano.a(lib_a-fstatr.o)
 .debug_line    0x000000000000e7ba      0x5df /usr/lib/gcc/arm-none-eabi/10.3.1/../../../arm-none-eabi/lib/thumb/v7-m/nofp/libc_nano.a(lib_a-fvwrite.o)
 .debug_line    0x000000000000ed99      0x187 /usr/lib/gcc/arm-none-eabi/10.3.1/../../../arm-none-eabi/lib/thumb/v7-m/nofp/libc_nano.a(lib_a-isattyr.o)
 .debug_line    0x000000000000ef20      0x267 /usr/lib/gcc/arm-none-eabi/10.3.1/../../../arm-none-eabi/lib/thumb/v7-m/nofp/libc_nano.a(lib_a-locale.o)
 .debug_line    0x000000000000f187      0x18d /usr/lib/gcc/arm-none-eabi/10.3.1/../../../arm-none-eabi/lib/thumb/v7-m/nofp/libc_nano.a(lib_a-lseekr.o)
 .debug_line    0x000000000000f314      0x213 /usr/lib/gcc/arm-none-eabi/10.3.1/../../../arm-none-eabi/lib/thumb/v7-m/nofp/libc_nano.a(lib_a-mbtowc_r.o)
 .debug_line    0x000000000000f527      0x206 /usr/lib/gcc/arm-none-eabi/10.3.1/../../../arm-none-eabi/lib/thumb/v7-m/nofp/libc_nano.a(lib_a-memmove.o)
 .debug_line    0x000000000000f72d      0x13e /usr/lib/gcc/arm-none-eabi/10.3.1/../../../arm-none-eabi/lib/thumb/v7-m/nofp/libc_nano.a(lib_a-mlock.o)
 .debug_line    0x000000000000f86b      0x1c7 /usr/lib/gcc/arm-none-eabi/10.3.1/../../../arm-none-eabi/lib/thumb/v7-m/nofp/libc_nano.a(lib_a-nano-reallocr.o)
 .debug_line    0x000000000000fa32      0x18c /usr/lib/gcc/arm-none-eabi/10.3.1/../../../arm-none-eabi/lib/thumb/v7-m/nofp/libc_nano.a(lib_a-readr.o)
 .debug_line    0x000000000000fbbe      0x2c7 /usr/lib/gcc/arm-none-eabi/10.3.1/../../../arm-none-eabi/lib/thumb/v7-m/nofp/libc_nano.a(lib_a-reent.o)
 .debug_line    0x000000000000fe85      0x20a /usr/lib/gcc/arm-none-eabi/10.3.1/../../../arm-none-eabi/lib/thumb/v7-m/nofp/libc_nano.a(lib_a-wctomb_r.o)
 .debug_line    0x000000000001008f      0x109 /usr/lib/gcc/arm-none-eabi/10.3.1/../../../arm-none-eabi/lib/thumb/v7-m/nofp/libc_nano.a(lib_a-abort.o)
 .debug_line    0x0000000000010198       0x5e /usr/lib/gcc/arm-none-eabi/10.3.1/../../../arm-none-eabi/lib/thumb/v7-m/nofp/libc_nano.a(lib_a-ctype_.o)
 .debug_line    0x00000000000101f6      0x160 /usr/lib/gcc/arm-none-eabi/10.3.1/../../../arm-none-eabi/lib/thumb/v7-m/nofp/libc_nano.a(lib_a-nano-msizer.o)
 .debug_line    0x0000000000010356      0x65f /usr/lib/gcc/arm-none-eabi/10.3.1/../../../arm-none-eabi/lib/thumb/v7-m/nofp/libc_nano.a(lib_a-signal.o)
 .debug_line    0x00000000000109b5      0x1a3 /usr/lib/gcc/arm-none-eabi/10.3.1/../../../arm-none-eabi/lib/thumb/v7-m/nofp/libc_nano.a(lib_a-signalr.o)
 .debug_line    0x0000000000010b58       0xbd /usr/lib/gcc/arm-none-eabi/10.3.1/thumb/v7-m/nofp/libgcc.a(_arm_cmpdf2.o)
 .debug_line    0x0000000000010c15       0x6e /usr/lib/gcc/arm-none-eabi/10.3.1/thumb/v7-m/nofp/libgcc.a(_arm_unorddf2.o)
 .debug_line    0x0000000000010c83       0x79 /usr/lib/gcc/arm-none-eabi/10.3.1/thumb/v7-m/nofp/libgcc.a(_arm_fixdfsi.o)
 .debug_line    0x0000000000010cfc       0x75 /usr/lib/gcc/arm-none-eabi/10.3.1/../../../arm-none-eabi/lib/thumb/v7-m/nofp/libnosys.a(close.o)
 .debug_line    0x0000000000010d71      0x13f /usr/lib/gcc/arm-none-eabi/10.3.1/../../../arm-none-eabi/lib/thumb/v7-m/nofp/libnosys.a(fstat.o)
 .debug_line    0x0000000000010eb0       0x76 /usr/lib/gcc/arm-none-eabi/10.3.1/../../../arm-none-eabi/lib/thumb/v7-m/nofp/libnosys.a(getpid.o)
 .debug_line    0x0000000000010f26       0x76 /usr/lib/gcc/arm-none-eabi/10.3.1/../../../arm-none-eabi/lib/thumb/v7-m/nofp/libnosys.a(isatty.o)
 .debug_line    0x0000000000010f9c       0x74 /usr/lib/gcc/arm-none-eabi/10.3.1/../../../arm-none-eabi/lib/thumb/v7-m/nofp/libnosys.a(kill.o)
 .debug_line    0x0000000000011010       0x76 /usr/lib/gcc/arm-none-eabi/10.3.1/../../../arm-none-eabi/lib/thumb/v7-m/nofp/libnosys.a(lseek.o)
 .debug_line    0x0000000000011086       0x75 /usr/lib/gcc/arm-none-eabi/10.3.1/../../../arm-none-eabi/lib/thumb/v7-m/nofp/libnosys.a(read.o)
 .debug_line    0x00000000000110fb       0x79 /usr/lib/gcc/arm-none-eabi/10.3.1/../../../arm-none-eabi/lib/thumb/v7-m/nofp/libnosys.a(sbrk.o)
 .debug_line    0x0000000000011174       0x75 /usr/lib/gcc/arm-none-eabi/10.3.1/../../../arm-none-eabi/lib/thumb/v7-m/nofp/libnosys.a(_exit.o)

.debug_str      0x0000000000000000     0x4252
 .debug_str     0x0000000000000000      0x192 CMakeFiles/Project.elf.dir/Code/Src/GPS.c.obj
                                        0x1cb (size before relaxing)
 .debug_str     0x0000000000000192      0x78b CMakeFiles/Project.elf.dir/Code/Src/GPS_Usart.c.obj
                                        0x954 (size before relaxing)
 .debug_str     0x000000000000091d      0x2e3 CMakeFiles/Project.elf.dir/Code/Src/I2COLED.c.obj
                                        0x673 (size before relaxing)
 .debug_str     0x0000000000000c00      0x140 CMakeFiles/Project.elf.dir/Code/Src/NBIOT_Usart.c.obj
                                        0x98c (size before relaxing)
 .debug_str     0x0000000000000d40       0x54 CMakeFiles/Project.elf.dir/Code/Src/OLED.c.obj
                                        0x2e1 (size before relaxing)
 .debug_str     0x0000000000000d94      0x1cc CMakeFiles/Project.elf.dir/Code/Src/OneWrite.c.obj
                                        0x4de (size before relaxing)
 .debug_str     0x0000000000000f60       0xc1 CMakeFiles/Project.elf.dir/Code/Src/Usart.c.obj
                                        0x8ef (size before relaxing)
 .debug_str     0x0000000000001021       0xd4 CMakeFiles/Project.elf.dir/Code/Src/nbiot.c.obj
                                        0x44f (size before relaxing)
 .debug_str     0x00000000000010f5      0x181 CMakeFiles/Project.elf.dir/Lib/Src/misc.c.obj
                                        0x3f9 (size before relaxing)
 .debug_str     0x0000000000001276      0x23f CMakeFiles/Project.elf.dir/Lib/Src/stm32f10x_gpio.c.obj
                                        0x571 (size before relaxing)
 .debug_str     0x00000000000014b5      0x35e CMakeFiles/Project.elf.dir/Lib/Src/stm32f10x_i2c.c.obj
                                        0x6d0 (size before relaxing)
 .debug_str     0x0000000000001813      0x35b CMakeFiles/Project.elf.dir/Lib/Src/stm32f10x_rcc.c.obj
                                        0x65b (size before relaxing)
 .debug_str     0x0000000000001b6e      0x31a CMakeFiles/Project.elf.dir/Lib/Src/stm32f10x_usart.c.obj
                                        0x711 (size before relaxing)
 .debug_str     0x0000000000001e88       0x53 CMakeFiles/Project.elf.dir/Project/Code-Cmake/startup_stm32f10x_md.s.obj
                                         0x76 (size before relaxing)
 .debug_str     0x0000000000001edb       0xc6 CMakeFiles/Project.elf.dir/Start/Src/stm32f10x_it.c.obj
                                        0x233 (size before relaxing)
 .debug_str     0x0000000000001fa1       0xab CMakeFiles/Project.elf.dir/Start/Src/system_stm32f10x.c.obj
                                        0x323 (size before relaxing)
 .debug_str     0x000000000000204c       0x30 CMakeFiles/Project.elf.dir/System/Src/Delay.c.obj
                                        0x1e8 (size before relaxing)
 .debug_str     0x000000000000207c       0x4e CMakeFiles/Project.elf.dir/User/main.c.obj
                                        0x2cc (size before relaxing)
 .debug_str     0x00000000000020ca       0xa7 /usr/lib/gcc/arm-none-eabi/10.3.1/thumb/v7-m/nofp/libgcc.a(_arm_addsubdf3.o)
 .debug_str     0x0000000000002171       0xa7 /usr/lib/gcc/arm-none-eabi/10.3.1/thumb/v7-m/nofp/libgcc.a(_arm_muldivdf3.o)
 .debug_str     0x0000000000002171       0xa7 /usr/lib/gcc/arm-none-eabi/10.3.1/thumb/v7-m/nofp/libgcc.a(_arm_truncdfsf2.o)
 .debug_str     0x0000000000002171       0x31 /usr/lib/gcc/arm-none-eabi/10.3.1/thumb/v7-m/nofp/libgcc.a(_arm_addsubsf3.o)
                                         0xa7 (size before relaxing)
 .debug_str     0x00000000000021a2      0x43e /usr/lib/gcc/arm-none-eabi/10.3.1/../../../arm-none-eabi/lib/thumb/v7-m/nofp/libc_nano.a(lib_a-impure.o)
                                        0x556 (size before relaxing)
 .debug_str     0x00000000000025e0       0xa6 /usr/lib/gcc/arm-none-eabi/10.3.1/../../../arm-none-eabi/lib/thumb/v7-m/nofp/libc_nano.a(lib_a-memset.o)
                                        0x1b8 (size before relaxing)
 .debug_str     0x0000000000002686      0x31e /usr/lib/gcc/arm-none-eabi/10.3.1/../../../arm-none-eabi/lib/thumb/v7-m/nofp/libc_nano.a(lib_a-nano-vfprintf_float.o)
                                        0x8a3 (size before relaxing)
 .debug_str     0x00000000000029a4       0x7b /usr/lib/gcc/arm-none-eabi/10.3.1/../../../arm-none-eabi/lib/thumb/v7-m/nofp/libc_nano.a(lib_a-nano-vfprintf_i.o)
                                        0x7e4 (size before relaxing)
 .debug_str     0x0000000000002a1f       0x51 /usr/lib/gcc/arm-none-eabi/10.3.1/../../../arm-none-eabi/lib/thumb/v7-m/nofp/libc_nano.a(lib_a-printf.o)
                                        0x543 (size before relaxing)
 .debug_str     0x0000000000002a70       0x69 /usr/lib/gcc/arm-none-eabi/10.3.1/../../../arm-none-eabi/lib/thumb/v7-m/nofp/libc_nano.a(lib_a-puts.o)
                                        0x58b (size before relaxing)
 .debug_str     0x0000000000002ad9       0x4c /usr/lib/gcc/arm-none-eabi/10.3.1/../../../arm-none-eabi/lib/thumb/v7-m/nofp/libc_nano.a(lib_a-sprintf.o)
                                        0x544 (size before relaxing)
 .debug_str     0x0000000000002b25       0x9f /usr/lib/gcc/arm-none-eabi/10.3.1/../../../arm-none-eabi/lib/thumb/v7-m/nofp/libc_nano.a(lib_a-strcpy.o)
                                        0x1aa (size before relaxing)
 .debug_str     0x0000000000002bc4       0x41 /usr/lib/gcc/arm-none-eabi/10.3.1/../../../arm-none-eabi/lib/thumb/v7-m/nofp/libc_nano.a(lib_a-strlen-stub.o)
                                        0x1b6 (size before relaxing)
 .debug_str     0x0000000000002c05       0xf0 /usr/lib/gcc/arm-none-eabi/10.3.1/../../../arm-none-eabi/lib/thumb/v7-m/nofp/libc_nano.a(lib_a-strstr.o)
                                        0x2a8 (size before relaxing)
 .debug_str     0x0000000000002cf5       0x43 /usr/lib/gcc/arm-none-eabi/10.3.1/../../../arm-none-eabi/lib/thumb/v7-m/nofp/libc_nano.a(lib_a-wbuf.o)
                                        0x57a (size before relaxing)
 .debug_str     0x0000000000002d38       0x48 /usr/lib/gcc/arm-none-eabi/10.3.1/../../../arm-none-eabi/lib/thumb/v7-m/nofp/libc_nano.a(lib_a-wsetup.o)
                                        0x575 (size before relaxing)
 .debug_str     0x0000000000002d80      0x212 /usr/lib/gcc/arm-none-eabi/10.3.1/../../../arm-none-eabi/lib/thumb/v7-m/nofp/libc_nano.a(lib_a-dtoa.o)
                                        0x8e5 (size before relaxing)
 .debug_str     0x0000000000002f92       0x63 /usr/lib/gcc/arm-none-eabi/10.3.1/../../../arm-none-eabi/lib/thumb/v7-m/nofp/libc_nano.a(lib_a-fflush.o)
                                        0x5b6 (size before relaxing)
 .debug_str     0x0000000000002ff5      0x1ce /usr/lib/gcc/arm-none-eabi/10.3.1/../../../arm-none-eabi/lib/thumb/v7-m/nofp/libc_nano.a(lib_a-findfp.o)
                                        0x72f (size before relaxing)
 .debug_str     0x00000000000031c3       0x41 /usr/lib/gcc/arm-none-eabi/10.3.1/../../../arm-none-eabi/lib/thumb/v7-m/nofp/libc_nano.a(lib_a-fwalk.o)
                                        0x51c (size before relaxing)
 .debug_str     0x0000000000003204       0xf8 /usr/lib/gcc/arm-none-eabi/10.3.1/../../../arm-none-eabi/lib/thumb/v7-m/nofp/libc_nano.a(lib_a-localeconv.o)
                                        0x74c (size before relaxing)
 .debug_str     0x00000000000032fc      0x161 /usr/lib/gcc/arm-none-eabi/10.3.1/../../../arm-none-eabi/lib/thumb/v7-m/nofp/libc_nano.a(lib_a-makebuf.o)
                                        0x698 (size before relaxing)
 .debug_str     0x000000000000345d       0x40 /usr/lib/gcc/arm-none-eabi/10.3.1/../../../arm-none-eabi/lib/thumb/v7-m/nofp/libc_nano.a(lib_a-malloc.o)
                                        0x52b (size before relaxing)
 .debug_str     0x000000000000349d       0x4f /usr/lib/gcc/arm-none-eabi/10.3.1/../../../arm-none-eabi/lib/thumb/v7-m/nofp/libc_nano.a(lib_a-memchr-stub.o)
                                        0x1d0 (size before relaxing)
 .debug_str     0x00000000000034ec       0x34 /usr/lib/gcc/arm-none-eabi/10.3.1/../../../arm-none-eabi/lib/thumb/v7-m/nofp/libc_nano.a(lib_a-memcmp.o)
                                        0x1a4 (size before relaxing)
 .debug_str     0x0000000000003520       0x43 /usr/lib/gcc/arm-none-eabi/10.3.1/../../../arm-none-eabi/lib/thumb/v7-m/nofp/libc_nano.a(lib_a-memcpy.o)
                                         0xb2 (size before relaxing)
 .debug_str     0x0000000000003563       0x9e /usr/lib/gcc/arm-none-eabi/10.3.1/../../../arm-none-eabi/lib/thumb/v7-m/nofp/libc_nano.a(lib_a-mprec.o)
                                        0x823 (size before relaxing)
 .debug_str     0x0000000000003601       0x57 /usr/lib/gcc/arm-none-eabi/10.3.1/../../../arm-none-eabi/lib/thumb/v7-m/nofp/libc_nano.a(lib_a-nano-callocr.o)
                                        0x533 (size before relaxing)
 .debug_str     0x0000000000003658       0x62 /usr/lib/gcc/arm-none-eabi/10.3.1/../../../arm-none-eabi/lib/thumb/v7-m/nofp/libc_nano.a(lib_a-nano-freer.o)
                                        0x58d (size before relaxing)
 .debug_str     0x00000000000036ba       0x46 /usr/lib/gcc/arm-none-eabi/10.3.1/../../../arm-none-eabi/lib/thumb/v7-m/nofp/libc_nano.a(lib_a-nano-mallocr.o)
                                        0x5b8 (size before relaxing)
 .debug_str     0x0000000000003700       0xd5 /usr/lib/gcc/arm-none-eabi/10.3.1/../../../arm-none-eabi/lib/thumb/v7-m/nofp/libc_nano.a(lib_a-nano-svfprintf.o)
                                        0x84d (size before relaxing)
 .debug_str     0x00000000000037d5       0x37 /usr/lib/gcc/arm-none-eabi/10.3.1/../../../arm-none-eabi/lib/thumb/v7-m/nofp/libc_nano.a(lib_a-nano-vfprintf.o)
                                        0x8b1 (size before relaxing)
 .debug_str     0x000000000000380c       0x47 /usr/lib/gcc/arm-none-eabi/10.3.1/../../../arm-none-eabi/lib/thumb/v7-m/nofp/libc_nano.a(lib_a-sbrkr.o)
                                        0x50e (size before relaxing)
 .debug_str     0x0000000000003853       0x92 /usr/lib/gcc/arm-none-eabi/10.3.1/../../../arm-none-eabi/lib/thumb/v7-m/nofp/libc_nano.a(lib_a-stdio.o)
                                        0x56b (size before relaxing)
 .debug_str     0x00000000000038e5       0x34 /usr/lib/gcc/arm-none-eabi/10.3.1/../../../arm-none-eabi/lib/thumb/v7-m/nofp/libc_nano.a(lib_a-strchr.o)
                                        0x1af (size before relaxing)
 .debug_str     0x0000000000003919       0x35 /usr/lib/gcc/arm-none-eabi/10.3.1/../../../arm-none-eabi/lib/thumb/v7-m/nofp/libc_nano.a(lib_a-strnlen.o)
                                        0x1ac (size before relaxing)
 .debug_str     0x000000000000394e       0x33 /usr/lib/gcc/arm-none-eabi/10.3.1/../../../arm-none-eabi/lib/thumb/v7-m/nofp/libc_nano.a(lib_a-writer.o)
                                        0x50b (size before relaxing)
 .debug_str     0x0000000000003981       0x5c /usr/lib/gcc/arm-none-eabi/10.3.1/../../../arm-none-eabi/lib/thumb/v7-m/nofp/libc_nano.a(lib_a-assert.o)
                                        0x53a (size before relaxing)
 .debug_str     0x00000000000039dd       0x33 /usr/lib/gcc/arm-none-eabi/10.3.1/../../../arm-none-eabi/lib/thumb/v7-m/nofp/libc_nano.a(lib_a-closer.o)
                                        0x4fb (size before relaxing)
 .debug_str     0x0000000000003a10       0x3f /usr/lib/gcc/arm-none-eabi/10.3.1/../../../arm-none-eabi/lib/thumb/v7-m/nofp/libc_nano.a(lib_a-fprintf.o)
                                        0x543 (size before relaxing)
 .debug_str     0x0000000000003a4f       0x40 /usr/lib/gcc/arm-none-eabi/10.3.1/../../../arm-none-eabi/lib/thumb/v7-m/nofp/libc_nano.a(lib_a-fstatr.o)
                                        0x64d (size before relaxing)
 .debug_str     0x0000000000003a8f       0x43 /usr/lib/gcc/arm-none-eabi/10.3.1/../../../arm-none-eabi/lib/thumb/v7-m/nofp/libc_nano.a(lib_a-fvwrite.o)
                                        0x5a9 (size before relaxing)
 .debug_str     0x0000000000003ad2       0x3c /usr/lib/gcc/arm-none-eabi/10.3.1/../../../arm-none-eabi/lib/thumb/v7-m/nofp/libc_nano.a(lib_a-isattyr.o)
                                        0x505 (size before relaxing)
 .debug_str     0x0000000000003b0e       0x83 /usr/lib/gcc/arm-none-eabi/10.3.1/../../../arm-none-eabi/lib/thumb/v7-m/nofp/libc_nano.a(lib_a-locale.o)
                                        0x767 (size before relaxing)
 .debug_str     0x0000000000003b91       0x3a /usr/lib/gcc/arm-none-eabi/10.3.1/../../../arm-none-eabi/lib/thumb/v7-m/nofp/libc_nano.a(lib_a-lseekr.o)
                                        0x509 (size before relaxing)
 .debug_str     0x0000000000003bcb       0x55 /usr/lib/gcc/arm-none-eabi/10.3.1/../../../arm-none-eabi/lib/thumb/v7-m/nofp/libc_nano.a(lib_a-mbtowc_r.o)
                                        0x72c (size before relaxing)
 .debug_str     0x0000000000003c20       0x56 /usr/lib/gcc/arm-none-eabi/10.3.1/../../../arm-none-eabi/lib/thumb/v7-m/nofp/libc_nano.a(lib_a-memmove.o)
                                        0x1d7 (size before relaxing)
 .debug_str     0x0000000000003c76       0x4c /usr/lib/gcc/arm-none-eabi/10.3.1/../../../arm-none-eabi/lib/thumb/v7-m/nofp/libc_nano.a(lib_a-mlock.o)
                                        0x524 (size before relaxing)
 .debug_str     0x0000000000003cc2       0x23 /usr/lib/gcc/arm-none-eabi/10.3.1/../../../arm-none-eabi/lib/thumb/v7-m/nofp/libc_nano.a(lib_a-nano-reallocr.o)
                                        0x577 (size before relaxing)
 .debug_str     0x0000000000003ce5       0x32 /usr/lib/gcc/arm-none-eabi/10.3.1/../../../arm-none-eabi/lib/thumb/v7-m/nofp/libc_nano.a(lib_a-readr.o)
                                        0x509 (size before relaxing)
 .debug_str     0x0000000000003d17       0x5e /usr/lib/gcc/arm-none-eabi/10.3.1/../../../arm-none-eabi/lib/thumb/v7-m/nofp/libc_nano.a(lib_a-reent.o)
                                        0x536 (size before relaxing)
 .debug_str     0x0000000000003d75       0x56 /usr/lib/gcc/arm-none-eabi/10.3.1/../../../arm-none-eabi/lib/thumb/v7-m/nofp/libc_nano.a(lib_a-wctomb_r.o)
                                        0x733 (size before relaxing)
 .debug_str     0x0000000000003dcb       0x3f /usr/lib/gcc/arm-none-eabi/10.3.1/../../../arm-none-eabi/lib/thumb/v7-m/nofp/libc_nano.a(lib_a-abort.o)
                                        0x1a7 (size before relaxing)
 .debug_str     0x0000000000003e0a       0x90 /usr/lib/gcc/arm-none-eabi/10.3.1/../../../arm-none-eabi/lib/thumb/v7-m/nofp/libc_nano.a(lib_a-ctype_.o)
                                        0x19c (size before relaxing)
 .debug_str     0x0000000000003e9a        0xf /usr/lib/gcc/arm-none-eabi/10.3.1/../../../arm-none-eabi/lib/thumb/v7-m/nofp/libc_nano.a(lib_a-nano-msizer.o)
                                        0x555 (size before relaxing)
 .debug_str     0x0000000000003ea9       0xf8 /usr/lib/gcc/arm-none-eabi/10.3.1/../../../arm-none-eabi/lib/thumb/v7-m/nofp/libc_nano.a(lib_a-signal.o)
                                        0x586 (size before relaxing)
 .debug_str     0x0000000000003fa1       0x42 /usr/lib/gcc/arm-none-eabi/10.3.1/../../../arm-none-eabi/lib/thumb/v7-m/nofp/libc_nano.a(lib_a-signalr.o)
                                        0x513 (size before relaxing)
 .debug_str     0x0000000000003fe3       0xa7 /usr/lib/gcc/arm-none-eabi/10.3.1/thumb/v7-m/nofp/libgcc.a(_arm_cmpdf2.o)
 .debug_str     0x0000000000003fe3       0xa7 /usr/lib/gcc/arm-none-eabi/10.3.1/thumb/v7-m/nofp/libgcc.a(_arm_unorddf2.o)
 .debug_str     0x0000000000003fe3       0xa7 /usr/lib/gcc/arm-none-eabi/10.3.1/thumb/v7-m/nofp/libgcc.a(_arm_fixdfsi.o)
 .debug_str     0x0000000000003fe3       0xea /usr/lib/gcc/arm-none-eabi/10.3.1/../../../arm-none-eabi/lib/thumb/v7-m/nofp/libnosys.a(close.o)
                                        0x18c (size before relaxing)
 .debug_str     0x00000000000040cd       0x2f /usr/lib/gcc/arm-none-eabi/10.3.1/../../../arm-none-eabi/lib/thumb/v7-m/nofp/libnosys.a(fstat.o)
                                        0x2d8 (size before relaxing)
 .debug_str     0x00000000000040fc       0x30 /usr/lib/gcc/arm-none-eabi/10.3.1/../../../arm-none-eabi/lib/thumb/v7-m/nofp/libnosys.a(getpid.o)
                                        0x187 (size before relaxing)
 .debug_str     0x000000000000412c       0x30 /usr/lib/gcc/arm-none-eabi/10.3.1/../../../arm-none-eabi/lib/thumb/v7-m/nofp/libnosys.a(isatty.o)
                                        0x18c (size before relaxing)
 .debug_str     0x000000000000415c       0x2e /usr/lib/gcc/arm-none-eabi/10.3.1/../../../arm-none-eabi/lib/thumb/v7-m/nofp/libnosys.a(kill.o)
                                        0x183 (size before relaxing)
 .debug_str     0x000000000000418a       0x2f /usr/lib/gcc/arm-none-eabi/10.3.1/../../../arm-none-eabi/lib/thumb/v7-m/nofp/libnosys.a(lseek.o)
                                        0x18a (size before relaxing)
 .debug_str     0x00000000000041b9       0x2e /usr/lib/gcc/arm-none-eabi/10.3.1/../../../arm-none-eabi/lib/thumb/v7-m/nofp/libnosys.a(read.o)
                                        0x188 (size before relaxing)
 .debug_str     0x00000000000041e7       0x3c /usr/lib/gcc/arm-none-eabi/10.3.1/../../../arm-none-eabi/lib/thumb/v7-m/nofp/libnosys.a(sbrk.o)
                                        0x109 (size before relaxing)
 .debug_str     0x0000000000004223       0x2f /usr/lib/gcc/arm-none-eabi/10.3.1/../../../arm-none-eabi/lib/thumb/v7-m/nofp/libnosys.a(_exit.o)
                                        0x179 (size before relaxing)

.debug_frame    0x0000000000000000     0x287c
 .debug_frame   0x0000000000000000       0x58 CMakeFiles/Project.elf.dir/Code/Src/GPS.c.obj
 .debug_frame   0x0000000000000058       0xf8 CMakeFiles/Project.elf.dir/Code/Src/GPS_Usart.c.obj
 .debug_frame   0x0000000000000150      0x238 CMakeFiles/Project.elf.dir/Code/Src/I2COLED.c.obj
 .debug_frame   0x0000000000000388      0x128 CMakeFiles/Project.elf.dir/Code/Src/NBIOT_Usart.c.obj
 .debug_frame   0x00000000000004b0       0xe8 CMakeFiles/Project.elf.dir/Code/Src/OLED.c.obj
 .debug_frame   0x0000000000000598      0x150 CMakeFiles/Project.elf.dir/Code/Src/OneWrite.c.obj
 .debug_frame   0x00000000000006e8       0xfc CMakeFiles/Project.elf.dir/Code/Src/Usart.c.obj
 .debug_frame   0x00000000000007e4       0xa8 CMakeFiles/Project.elf.dir/Code/Src/nbiot.c.obj
 .debug_frame   0x000000000000088c       0x60 CMakeFiles/Project.elf.dir/Lib/Src/misc.c.obj
 .debug_frame   0x00000000000008ec      0x160 CMakeFiles/Project.elf.dir/Lib/Src/stm32f10x_gpio.c.obj
 .debug_frame   0x0000000000000a4c      0x250 CMakeFiles/Project.elf.dir/Lib/Src/stm32f10x_i2c.c.obj
 .debug_frame   0x0000000000000c9c      0x228 CMakeFiles/Project.elf.dir/Lib/Src/stm32f10x_rcc.c.obj
 .debug_frame   0x0000000000000ec4      0x204 CMakeFiles/Project.elf.dir/Lib/Src/stm32f10x_usart.c.obj
 .debug_frame   0x00000000000010c8       0xa0 CMakeFiles/Project.elf.dir/Start/Src/stm32f10x_it.c.obj
 .debug_frame   0x0000000000001168       0x6c CMakeFiles/Project.elf.dir/Start/Src/system_stm32f10x.c.obj
 .debug_frame   0x00000000000011d4       0x50 CMakeFiles/Project.elf.dir/System/Src/Delay.c.obj
 .debug_frame   0x0000000000001224       0x28 CMakeFiles/Project.elf.dir/User/main.c.obj
 .debug_frame   0x000000000000124c       0xac /usr/lib/gcc/arm-none-eabi/10.3.1/thumb/v7-m/nofp/libgcc.a(_arm_addsubdf3.o)
 .debug_frame   0x00000000000012f8       0x50 /usr/lib/gcc/arm-none-eabi/10.3.1/thumb/v7-m/nofp/libgcc.a(_arm_muldivdf3.o)
 .debug_frame   0x0000000000001348       0x24 /usr/lib/gcc/arm-none-eabi/10.3.1/thumb/v7-m/nofp/libgcc.a(_arm_truncdfsf2.o)
 .debug_frame   0x000000000000136c       0x4c /usr/lib/gcc/arm-none-eabi/10.3.1/thumb/v7-m/nofp/libgcc.a(_arm_addsubsf3.o)
 .debug_frame   0x00000000000013b8       0x2c /usr/lib/gcc/arm-none-eabi/10.3.1/../../../arm-none-eabi/lib/thumb/v7-m/nofp/libc_nano.a(lib_a-memset.o)
 .debug_frame   0x00000000000013e4       0xa4 /usr/lib/gcc/arm-none-eabi/10.3.1/../../../arm-none-eabi/lib/thumb/v7-m/nofp/libc_nano.a(lib_a-nano-vfprintf_float.o)
 .debug_frame   0x0000000000001488       0x68 /usr/lib/gcc/arm-none-eabi/10.3.1/../../../arm-none-eabi/lib/thumb/v7-m/nofp/libc_nano.a(lib_a-nano-vfprintf_i.o)
 .debug_frame   0x00000000000014f0       0x7c /usr/lib/gcc/arm-none-eabi/10.3.1/../../../arm-none-eabi/lib/thumb/v7-m/nofp/libc_nano.a(lib_a-printf.o)
 .debug_frame   0x000000000000156c       0x3c /usr/lib/gcc/arm-none-eabi/10.3.1/../../../arm-none-eabi/lib/thumb/v7-m/nofp/libc_nano.a(lib_a-puts.o)
 .debug_frame   0x00000000000015a8       0x7c /usr/lib/gcc/arm-none-eabi/10.3.1/../../../arm-none-eabi/lib/thumb/v7-m/nofp/libc_nano.a(lib_a-sprintf.o)
 .debug_frame   0x0000000000001624       0x20 /usr/lib/gcc/arm-none-eabi/10.3.1/../../../arm-none-eabi/lib/thumb/v7-m/nofp/libc_nano.a(lib_a-strcpy.o)
 .debug_frame   0x0000000000001644       0x20 /usr/lib/gcc/arm-none-eabi/10.3.1/../../../arm-none-eabi/lib/thumb/v7-m/nofp/libc_nano.a(lib_a-strlen-stub.o)
 .debug_frame   0x0000000000001664       0x9c /usr/lib/gcc/arm-none-eabi/10.3.1/../../../arm-none-eabi/lib/thumb/v7-m/nofp/libc_nano.a(lib_a-strstr.o)
 .debug_frame   0x0000000000001700       0x40 /usr/lib/gcc/arm-none-eabi/10.3.1/../../../arm-none-eabi/lib/thumb/v7-m/nofp/libc_nano.a(lib_a-wbuf.o)
 .debug_frame   0x0000000000001740       0x2c /usr/lib/gcc/arm-none-eabi/10.3.1/../../../arm-none-eabi/lib/thumb/v7-m/nofp/libc_nano.a(lib_a-wsetup.o)
 .debug_frame   0x000000000000176c       0x8c /usr/lib/gcc/arm-none-eabi/10.3.1/../../../arm-none-eabi/lib/thumb/v7-m/nofp/libc_nano.a(lib_a-dtoa.o)
 .debug_frame   0x00000000000017f8       0x88 /usr/lib/gcc/arm-none-eabi/10.3.1/../../../arm-none-eabi/lib/thumb/v7-m/nofp/libc_nano.a(lib_a-fflush.o)
 .debug_frame   0x0000000000001880      0x120 /usr/lib/gcc/arm-none-eabi/10.3.1/../../../arm-none-eabi/lib/thumb/v7-m/nofp/libc_nano.a(lib_a-findfp.o)
 .debug_frame   0x00000000000019a0       0x54 /usr/lib/gcc/arm-none-eabi/10.3.1/../../../arm-none-eabi/lib/thumb/v7-m/nofp/libc_nano.a(lib_a-fwalk.o)
 .debug_frame   0x00000000000019f4       0x40 /usr/lib/gcc/arm-none-eabi/10.3.1/../../../arm-none-eabi/lib/thumb/v7-m/nofp/libc_nano.a(lib_a-localeconv.o)
 .debug_frame   0x0000000000001a34       0x68 /usr/lib/gcc/arm-none-eabi/10.3.1/../../../arm-none-eabi/lib/thumb/v7-m/nofp/libc_nano.a(lib_a-makebuf.o)
 .debug_frame   0x0000000000001a9c       0x30 /usr/lib/gcc/arm-none-eabi/10.3.1/../../../arm-none-eabi/lib/thumb/v7-m/nofp/libc_nano.a(lib_a-malloc.o)
 .debug_frame   0x0000000000001acc       0x28 /usr/lib/gcc/arm-none-eabi/10.3.1/../../../arm-none-eabi/lib/thumb/v7-m/nofp/libc_nano.a(lib_a-memchr-stub.o)
 .debug_frame   0x0000000000001af4       0x28 /usr/lib/gcc/arm-none-eabi/10.3.1/../../../arm-none-eabi/lib/thumb/v7-m/nofp/libc_nano.a(lib_a-memcmp.o)
 .debug_frame   0x0000000000001b1c      0x270 /usr/lib/gcc/arm-none-eabi/10.3.1/../../../arm-none-eabi/lib/thumb/v7-m/nofp/libc_nano.a(lib_a-mprec.o)
 .debug_frame   0x0000000000001d8c       0x2c /usr/lib/gcc/arm-none-eabi/10.3.1/../../../arm-none-eabi/lib/thumb/v7-m/nofp/libc_nano.a(lib_a-nano-callocr.o)
 .debug_frame   0x0000000000001db8       0x64 /usr/lib/gcc/arm-none-eabi/10.3.1/../../../arm-none-eabi/lib/thumb/v7-m/nofp/libc_nano.a(lib_a-nano-freer.o)
 .debug_frame   0x0000000000001e1c       0x30 /usr/lib/gcc/arm-none-eabi/10.3.1/../../../arm-none-eabi/lib/thumb/v7-m/nofp/libc_nano.a(lib_a-nano-mallocr.o)
 .debug_frame   0x0000000000001e4c       0x98 /usr/lib/gcc/arm-none-eabi/10.3.1/../../../arm-none-eabi/lib/thumb/v7-m/nofp/libc_nano.a(lib_a-nano-svfprintf.o)
 .debug_frame   0x0000000000001ee4       0xac /usr/lib/gcc/arm-none-eabi/10.3.1/../../../arm-none-eabi/lib/thumb/v7-m/nofp/libc_nano.a(lib_a-nano-vfprintf.o)
 .debug_frame   0x0000000000001f90       0x2c /usr/lib/gcc/arm-none-eabi/10.3.1/../../../arm-none-eabi/lib/thumb/v7-m/nofp/libc_nano.a(lib_a-sbrkr.o)
 .debug_frame   0x0000000000001fbc       0x8c /usr/lib/gcc/arm-none-eabi/10.3.1/../../../arm-none-eabi/lib/thumb/v7-m/nofp/libc_nano.a(lib_a-stdio.o)
 .debug_frame   0x0000000000002048       0x34 /usr/lib/gcc/arm-none-eabi/10.3.1/../../../arm-none-eabi/lib/thumb/v7-m/nofp/libc_nano.a(lib_a-strchr.o)
 .debug_frame   0x000000000000207c       0x20 /usr/lib/gcc/arm-none-eabi/10.3.1/../../../arm-none-eabi/lib/thumb/v7-m/nofp/libc_nano.a(lib_a-strnlen.o)
 .debug_frame   0x000000000000209c       0x2c /usr/lib/gcc/arm-none-eabi/10.3.1/../../../arm-none-eabi/lib/thumb/v7-m/nofp/libc_nano.a(lib_a-writer.o)
 .debug_frame   0x00000000000020c8       0x40 /usr/lib/gcc/arm-none-eabi/10.3.1/../../../arm-none-eabi/lib/thumb/v7-m/nofp/libc_nano.a(lib_a-assert.o)
 .debug_frame   0x0000000000002108       0x2c /usr/lib/gcc/arm-none-eabi/10.3.1/../../../arm-none-eabi/lib/thumb/v7-m/nofp/libc_nano.a(lib_a-closer.o)
 .debug_frame   0x0000000000002134       0x6c /usr/lib/gcc/arm-none-eabi/10.3.1/../../../arm-none-eabi/lib/thumb/v7-m/nofp/libc_nano.a(lib_a-fprintf.o)
 .debug_frame   0x00000000000021a0       0x2c /usr/lib/gcc/arm-none-eabi/10.3.1/../../../arm-none-eabi/lib/thumb/v7-m/nofp/libc_nano.a(lib_a-fstatr.o)
 .debug_frame   0x00000000000021cc       0x64 /usr/lib/gcc/arm-none-eabi/10.3.1/../../../arm-none-eabi/lib/thumb/v7-m/nofp/libc_nano.a(lib_a-fvwrite.o)
 .debug_frame   0x0000000000002230       0x2c /usr/lib/gcc/arm-none-eabi/10.3.1/../../../arm-none-eabi/lib/thumb/v7-m/nofp/libc_nano.a(lib_a-isattyr.o)
 .debug_frame   0x000000000000225c       0x68 /usr/lib/gcc/arm-none-eabi/10.3.1/../../../arm-none-eabi/lib/thumb/v7-m/nofp/libc_nano.a(lib_a-locale.o)
 .debug_frame   0x00000000000022c4       0x2c /usr/lib/gcc/arm-none-eabi/10.3.1/../../../arm-none-eabi/lib/thumb/v7-m/nofp/libc_nano.a(lib_a-lseekr.o)
 .debug_frame   0x00000000000022f0       0x4c /usr/lib/gcc/arm-none-eabi/10.3.1/../../../arm-none-eabi/lib/thumb/v7-m/nofp/libc_nano.a(lib_a-mbtowc_r.o)
 .debug_frame   0x000000000000233c       0x40 /usr/lib/gcc/arm-none-eabi/10.3.1/../../../arm-none-eabi/lib/thumb/v7-m/nofp/libc_nano.a(lib_a-memmove.o)
 .debug_frame   0x000000000000237c       0x30 /usr/lib/gcc/arm-none-eabi/10.3.1/../../../arm-none-eabi/lib/thumb/v7-m/nofp/libc_nano.a(lib_a-mlock.o)
 .debug_frame   0x00000000000023ac       0x38 /usr/lib/gcc/arm-none-eabi/10.3.1/../../../arm-none-eabi/lib/thumb/v7-m/nofp/libc_nano.a(lib_a-nano-reallocr.o)
 .debug_frame   0x00000000000023e4       0x2c /usr/lib/gcc/arm-none-eabi/10.3.1/../../../arm-none-eabi/lib/thumb/v7-m/nofp/libc_nano.a(lib_a-readr.o)
 .debug_frame   0x0000000000002410       0x70 /usr/lib/gcc/arm-none-eabi/10.3.1/../../../arm-none-eabi/lib/thumb/v7-m/nofp/libc_nano.a(lib_a-reent.o)
 .debug_frame   0x0000000000002480       0x3c /usr/lib/gcc/arm-none-eabi/10.3.1/../../../arm-none-eabi/lib/thumb/v7-m/nofp/libc_nano.a(lib_a-wctomb_r.o)
 .debug_frame   0x00000000000024bc       0x28 /usr/lib/gcc/arm-none-eabi/10.3.1/../../../arm-none-eabi/lib/thumb/v7-m/nofp/libc_nano.a(lib_a-abort.o)
 .debug_frame   0x00000000000024e4       0x20 /usr/lib/gcc/arm-none-eabi/10.3.1/../../../arm-none-eabi/lib/thumb/v7-m/nofp/libc_nano.a(lib_a-nano-msizer.o)
 .debug_frame   0x0000000000002504      0x114 /usr/lib/gcc/arm-none-eabi/10.3.1/../../../arm-none-eabi/lib/thumb/v7-m/nofp/libc_nano.a(lib_a-signal.o)
 .debug_frame   0x0000000000002618       0x3c /usr/lib/gcc/arm-none-eabi/10.3.1/../../../arm-none-eabi/lib/thumb/v7-m/nofp/libc_nano.a(lib_a-signalr.o)
 .debug_frame   0x0000000000002654       0xc4 /usr/lib/gcc/arm-none-eabi/10.3.1/thumb/v7-m/nofp/libgcc.a(_arm_cmpdf2.o)
 .debug_frame   0x0000000000002718       0x20 /usr/lib/gcc/arm-none-eabi/10.3.1/thumb/v7-m/nofp/libgcc.a(_arm_unorddf2.o)
 .debug_frame   0x0000000000002738       0x24 /usr/lib/gcc/arm-none-eabi/10.3.1/thumb/v7-m/nofp/libgcc.a(_arm_fixdfsi.o)
 .debug_frame   0x000000000000275c       0x20 /usr/lib/gcc/arm-none-eabi/10.3.1/../../../arm-none-eabi/lib/thumb/v7-m/nofp/libnosys.a(close.o)
 .debug_frame   0x000000000000277c       0x20 /usr/lib/gcc/arm-none-eabi/10.3.1/../../../arm-none-eabi/lib/thumb/v7-m/nofp/libnosys.a(fstat.o)
 .debug_frame   0x000000000000279c       0x20 /usr/lib/gcc/arm-none-eabi/10.3.1/../../../arm-none-eabi/lib/thumb/v7-m/nofp/libnosys.a(getpid.o)
 .debug_frame   0x00000000000027bc       0x20 /usr/lib/gcc/arm-none-eabi/10.3.1/../../../arm-none-eabi/lib/thumb/v7-m/nofp/libnosys.a(isatty.o)
 .debug_frame   0x00000000000027dc       0x20 /usr/lib/gcc/arm-none-eabi/10.3.1/../../../arm-none-eabi/lib/thumb/v7-m/nofp/libnosys.a(kill.o)
 .debug_frame   0x00000000000027fc       0x20 /usr/lib/gcc/arm-none-eabi/10.3.1/../../../arm-none-eabi/lib/thumb/v7-m/nofp/libnosys.a(lseek.o)
 .debug_frame   0x000000000000281c       0x20 /usr/lib/gcc/arm-none-eabi/10.3.1/../../../arm-none-eabi/lib/thumb/v7-m/nofp/libnosys.a(read.o)
 .debug_frame   0x000000000000283c       0x20 /usr/lib/gcc/arm-none-eabi/10.3.1/../../../arm-none-eabi/lib/thumb/v7-m/nofp/libnosys.a(sbrk.o)
 .debug_frame   0x000000000000285c       0x20 /usr/lib/gcc/arm-none-eabi/10.3.1/../../../arm-none-eabi/lib/thumb/v7-m/nofp/libnosys.a(_exit.o)

.debug_loc      0x0000000000000000    0x118fe
 .debug_loc     0x0000000000000000      0x23d CMakeFiles/Project.elf.dir/Code/Src/GPS_Usart.c.obj
 .debug_loc     0x000000000000023d     0x1198 CMakeFiles/Project.elf.dir/Code/Src/I2COLED.c.obj
 .debug_loc     0x00000000000013d5      0x23d CMakeFiles/Project.elf.dir/Code/Src/NBIOT_Usart.c.obj
 .debug_loc     0x0000000000001612      0x35b CMakeFiles/Project.elf.dir/Code/Src/OLED.c.obj
 .debug_loc     0x000000000000196d      0x291 CMakeFiles/Project.elf.dir/Code/Src/OneWrite.c.obj
 .debug_loc     0x0000000000001bfe      0x260 CMakeFiles/Project.elf.dir/Code/Src/Usart.c.obj
 .debug_loc     0x0000000000001e5e       0x78 CMakeFiles/Project.elf.dir/Code/Src/nbiot.c.obj
 .debug_loc     0x0000000000001ed6      0x16b CMakeFiles/Project.elf.dir/Lib/Src/misc.c.obj
 .debug_loc     0x0000000000002041      0x62c CMakeFiles/Project.elf.dir/Lib/Src/stm32f10x_gpio.c.obj
 .debug_loc     0x000000000000266d      0x773 CMakeFiles/Project.elf.dir/Lib/Src/stm32f10x_i2c.c.obj
 .debug_loc     0x0000000000002de0      0x654 CMakeFiles/Project.elf.dir/Lib/Src/stm32f10x_rcc.c.obj
 .debug_loc     0x0000000000003434      0x80c CMakeFiles/Project.elf.dir/Lib/Src/stm32f10x_usart.c.obj
 .debug_loc     0x0000000000003c40       0xff CMakeFiles/Project.elf.dir/Start/Src/system_stm32f10x.c.obj
 .debug_loc     0x0000000000003d3f       0x9d CMakeFiles/Project.elf.dir/System/Src/Delay.c.obj
 .debug_loc     0x0000000000003ddc      0x22c /usr/lib/gcc/arm-none-eabi/10.3.1/../../../arm-none-eabi/lib/thumb/v7-m/nofp/libc_nano.a(lib_a-memset.o)
 .debug_loc     0x0000000000004008      0xab9 /usr/lib/gcc/arm-none-eabi/10.3.1/../../../arm-none-eabi/lib/thumb/v7-m/nofp/libc_nano.a(lib_a-nano-vfprintf_float.o)
 .debug_loc     0x0000000000004ac1      0x6c8 /usr/lib/gcc/arm-none-eabi/10.3.1/../../../arm-none-eabi/lib/thumb/v7-m/nofp/libc_nano.a(lib_a-nano-vfprintf_i.o)
 .debug_loc     0x0000000000005189       0x98 /usr/lib/gcc/arm-none-eabi/10.3.1/../../../arm-none-eabi/lib/thumb/v7-m/nofp/libc_nano.a(lib_a-printf.o)
 .debug_loc     0x0000000000005221      0x258 /usr/lib/gcc/arm-none-eabi/10.3.1/../../../arm-none-eabi/lib/thumb/v7-m/nofp/libc_nano.a(lib_a-puts.o)
 .debug_loc     0x0000000000005479       0xb3 /usr/lib/gcc/arm-none-eabi/10.3.1/../../../arm-none-eabi/lib/thumb/v7-m/nofp/libc_nano.a(lib_a-sprintf.o)
 .debug_loc     0x000000000000552c       0x25 /usr/lib/gcc/arm-none-eabi/10.3.1/../../../arm-none-eabi/lib/thumb/v7-m/nofp/libc_nano.a(lib_a-strcpy.o)
 .debug_loc     0x0000000000005551       0x25 /usr/lib/gcc/arm-none-eabi/10.3.1/../../../arm-none-eabi/lib/thumb/v7-m/nofp/libc_nano.a(lib_a-strlen-stub.o)
 .debug_loc     0x0000000000005576      0xf35 /usr/lib/gcc/arm-none-eabi/10.3.1/../../../arm-none-eabi/lib/thumb/v7-m/nofp/libc_nano.a(lib_a-strstr.o)
 .debug_loc     0x00000000000064ab      0x193 /usr/lib/gcc/arm-none-eabi/10.3.1/../../../arm-none-eabi/lib/thumb/v7-m/nofp/libc_nano.a(lib_a-wbuf.o)
 .debug_loc     0x000000000000663e       0xb7 /usr/lib/gcc/arm-none-eabi/10.3.1/../../../arm-none-eabi/lib/thumb/v7-m/nofp/libc_nano.a(lib_a-wsetup.o)
 .debug_loc     0x00000000000066f5     0x3512 /usr/lib/gcc/arm-none-eabi/10.3.1/../../../arm-none-eabi/lib/thumb/v7-m/nofp/libc_nano.a(lib_a-dtoa.o)
 .debug_loc     0x0000000000009c07      0x4c9 /usr/lib/gcc/arm-none-eabi/10.3.1/../../../arm-none-eabi/lib/thumb/v7-m/nofp/libc_nano.a(lib_a-fflush.o)
 .debug_loc     0x000000000000a0d0      0x3d9 /usr/lib/gcc/arm-none-eabi/10.3.1/../../../arm-none-eabi/lib/thumb/v7-m/nofp/libc_nano.a(lib_a-findfp.o)
 .debug_loc     0x000000000000a4a9      0x1bf /usr/lib/gcc/arm-none-eabi/10.3.1/../../../arm-none-eabi/lib/thumb/v7-m/nofp/libc_nano.a(lib_a-fwalk.o)
 .debug_loc     0x000000000000a668       0x6f /usr/lib/gcc/arm-none-eabi/10.3.1/../../../arm-none-eabi/lib/thumb/v7-m/nofp/libc_nano.a(lib_a-localeconv.o)
 .debug_loc     0x000000000000a6d7      0x327 /usr/lib/gcc/arm-none-eabi/10.3.1/../../../arm-none-eabi/lib/thumb/v7-m/nofp/libc_nano.a(lib_a-makebuf.o)
 .debug_loc     0x000000000000a9fe       0x64 /usr/lib/gcc/arm-none-eabi/10.3.1/../../../arm-none-eabi/lib/thumb/v7-m/nofp/libc_nano.a(lib_a-malloc.o)
 .debug_loc     0x000000000000aa62      0x1f6 /usr/lib/gcc/arm-none-eabi/10.3.1/../../../arm-none-eabi/lib/thumb/v7-m/nofp/libc_nano.a(lib_a-memchr-stub.o)
 .debug_loc     0x000000000000ac58      0x1db /usr/lib/gcc/arm-none-eabi/10.3.1/../../../arm-none-eabi/lib/thumb/v7-m/nofp/libc_nano.a(lib_a-memcmp.o)
 .debug_loc     0x000000000000ae33     0x27d9 /usr/lib/gcc/arm-none-eabi/10.3.1/../../../arm-none-eabi/lib/thumb/v7-m/nofp/libc_nano.a(lib_a-mprec.o)
 .debug_loc     0x000000000000d60c       0x91 /usr/lib/gcc/arm-none-eabi/10.3.1/../../../arm-none-eabi/lib/thumb/v7-m/nofp/libc_nano.a(lib_a-nano-callocr.o)
 .debug_loc     0x000000000000d69d      0x27f /usr/lib/gcc/arm-none-eabi/10.3.1/../../../arm-none-eabi/lib/thumb/v7-m/nofp/libc_nano.a(lib_a-nano-freer.o)
 .debug_loc     0x000000000000d91c      0x3da /usr/lib/gcc/arm-none-eabi/10.3.1/../../../arm-none-eabi/lib/thumb/v7-m/nofp/libc_nano.a(lib_a-nano-mallocr.o)
 .debug_loc     0x000000000000dcf6      0x84a /usr/lib/gcc/arm-none-eabi/10.3.1/../../../arm-none-eabi/lib/thumb/v7-m/nofp/libc_nano.a(lib_a-nano-svfprintf.o)
 .debug_loc     0x000000000000e540      0x779 /usr/lib/gcc/arm-none-eabi/10.3.1/../../../arm-none-eabi/lib/thumb/v7-m/nofp/libc_nano.a(lib_a-nano-vfprintf.o)
 .debug_loc     0x000000000000ecb9       0x6c /usr/lib/gcc/arm-none-eabi/10.3.1/../../../arm-none-eabi/lib/thumb/v7-m/nofp/libc_nano.a(lib_a-sbrkr.o)
 .debug_loc     0x000000000000ed25      0x3a0 /usr/lib/gcc/arm-none-eabi/10.3.1/../../../arm-none-eabi/lib/thumb/v7-m/nofp/libc_nano.a(lib_a-stdio.o)
 .debug_loc     0x000000000000f0c5      0x1e9 /usr/lib/gcc/arm-none-eabi/10.3.1/../../../arm-none-eabi/lib/thumb/v7-m/nofp/libc_nano.a(lib_a-strchr.o)
 .debug_loc     0x000000000000f2ae       0xeb /usr/lib/gcc/arm-none-eabi/10.3.1/../../../arm-none-eabi/lib/thumb/v7-m/nofp/libc_nano.a(lib_a-strnlen.o)
 .debug_loc     0x000000000000f399       0xea /usr/lib/gcc/arm-none-eabi/10.3.1/../../../arm-none-eabi/lib/thumb/v7-m/nofp/libc_nano.a(lib_a-writer.o)
 .debug_loc     0x000000000000f483      0x185 /usr/lib/gcc/arm-none-eabi/10.3.1/../../../arm-none-eabi/lib/thumb/v7-m/nofp/libc_nano.a(lib_a-assert.o)
 .debug_loc     0x000000000000f608       0x6c /usr/lib/gcc/arm-none-eabi/10.3.1/../../../arm-none-eabi/lib/thumb/v7-m/nofp/libc_nano.a(lib_a-closer.o)
 .debug_loc     0x000000000000f674       0xa6 /usr/lib/gcc/arm-none-eabi/10.3.1/../../../arm-none-eabi/lib/thumb/v7-m/nofp/libc_nano.a(lib_a-fprintf.o)
 .debug_loc     0x000000000000f71a       0x9e /usr/lib/gcc/arm-none-eabi/10.3.1/../../../arm-none-eabi/lib/thumb/v7-m/nofp/libc_nano.a(lib_a-fstatr.o)
 .debug_loc     0x000000000000f7b8      0x69d /usr/lib/gcc/arm-none-eabi/10.3.1/../../../arm-none-eabi/lib/thumb/v7-m/nofp/libc_nano.a(lib_a-fvwrite.o)
 .debug_loc     0x000000000000fe55       0x6c /usr/lib/gcc/arm-none-eabi/10.3.1/../../../arm-none-eabi/lib/thumb/v7-m/nofp/libc_nano.a(lib_a-isattyr.o)
 .debug_loc     0x000000000000fec1      0x27d /usr/lib/gcc/arm-none-eabi/10.3.1/../../../arm-none-eabi/lib/thumb/v7-m/nofp/libc_nano.a(lib_a-locale.o)
 .debug_loc     0x000000000001013e       0xea /usr/lib/gcc/arm-none-eabi/10.3.1/../../../arm-none-eabi/lib/thumb/v7-m/nofp/libc_nano.a(lib_a-lseekr.o)
 .debug_loc     0x0000000000010228      0x21d /usr/lib/gcc/arm-none-eabi/10.3.1/../../../arm-none-eabi/lib/thumb/v7-m/nofp/libc_nano.a(lib_a-mbtowc_r.o)
 .debug_loc     0x0000000000010445      0x331 /usr/lib/gcc/arm-none-eabi/10.3.1/../../../arm-none-eabi/lib/thumb/v7-m/nofp/libc_nano.a(lib_a-memmove.o)
 .debug_loc     0x0000000000010776      0x133 /usr/lib/gcc/arm-none-eabi/10.3.1/../../../arm-none-eabi/lib/thumb/v7-m/nofp/libc_nano.a(lib_a-nano-reallocr.o)
 .debug_loc     0x00000000000108a9       0xea /usr/lib/gcc/arm-none-eabi/10.3.1/../../../arm-none-eabi/lib/thumb/v7-m/nofp/libc_nano.a(lib_a-readr.o)
 .debug_loc     0x0000000000010993      0x1cd /usr/lib/gcc/arm-none-eabi/10.3.1/../../../arm-none-eabi/lib/thumb/v7-m/nofp/libc_nano.a(lib_a-reent.o)
 .debug_loc     0x0000000000010b60      0x173 /usr/lib/gcc/arm-none-eabi/10.3.1/../../../arm-none-eabi/lib/thumb/v7-m/nofp/libc_nano.a(lib_a-wctomb_r.o)
 .debug_loc     0x0000000000010cd3       0x86 /usr/lib/gcc/arm-none-eabi/10.3.1/../../../arm-none-eabi/lib/thumb/v7-m/nofp/libc_nano.a(lib_a-nano-msizer.o)
 .debug_loc     0x0000000000010d59      0x967 /usr/lib/gcc/arm-none-eabi/10.3.1/../../../arm-none-eabi/lib/thumb/v7-m/nofp/libc_nano.a(lib_a-signal.o)
 .debug_loc     0x00000000000116c0       0xc3 /usr/lib/gcc/arm-none-eabi/10.3.1/../../../arm-none-eabi/lib/thumb/v7-m/nofp/libc_nano.a(lib_a-signalr.o)
 .debug_loc     0x0000000000011783       0x25 /usr/lib/gcc/arm-none-eabi/10.3.1/../../../arm-none-eabi/lib/thumb/v7-m/nofp/libnosys.a(close.o)
 .debug_loc     0x00000000000117a8       0x25 /usr/lib/gcc/arm-none-eabi/10.3.1/../../../arm-none-eabi/lib/thumb/v7-m/nofp/libnosys.a(fstat.o)
 .debug_loc     0x00000000000117cd       0x25 /usr/lib/gcc/arm-none-eabi/10.3.1/../../../arm-none-eabi/lib/thumb/v7-m/nofp/libnosys.a(isatty.o)
 .debug_loc     0x00000000000117f2       0x25 /usr/lib/gcc/arm-none-eabi/10.3.1/../../../arm-none-eabi/lib/thumb/v7-m/nofp/libnosys.a(kill.o)
 .debug_loc     0x0000000000011817       0x4a /usr/lib/gcc/arm-none-eabi/10.3.1/../../../arm-none-eabi/lib/thumb/v7-m/nofp/libnosys.a(lseek.o)
 .debug_loc     0x0000000000011861       0x4a /usr/lib/gcc/arm-none-eabi/10.3.1/../../../arm-none-eabi/lib/thumb/v7-m/nofp/libnosys.a(read.o)
 .debug_loc     0x00000000000118ab       0x3e /usr/lib/gcc/arm-none-eabi/10.3.1/../../../arm-none-eabi/lib/thumb/v7-m/nofp/libnosys.a(sbrk.o)
 .debug_loc     0x00000000000118e9       0x15 /usr/lib/gcc/arm-none-eabi/10.3.1/../../../arm-none-eabi/lib/thumb/v7-m/nofp/libnosys.a(_exit.o)

.stab           0x0000000000000000       0xb4
 .stab          0x0000000000000000       0x24 /usr/lib/gcc/arm-none-eabi/10.3.1/../../../arm-none-eabi/lib/thumb/v7-m/nofp/libnosys.a(close.o)
 .stab          0x0000000000000024       0x18 /usr/lib/gcc/arm-none-eabi/10.3.1/../../../arm-none-eabi/lib/thumb/v7-m/nofp/libnosys.a(fstat.o)
                                         0x24 (size before relaxing)
 .stab          0x000000000000003c       0x18 /usr/lib/gcc/arm-none-eabi/10.3.1/../../../arm-none-eabi/lib/thumb/v7-m/nofp/libnosys.a(getpid.o)
                                         0x24 (size before relaxing)
 .stab          0x0000000000000054       0x18 /usr/lib/gcc/arm-none-eabi/10.3.1/../../../arm-none-eabi/lib/thumb/v7-m/nofp/libnosys.a(isatty.o)
                                         0x24 (size before relaxing)
 .stab          0x000000000000006c       0x18 /usr/lib/gcc/arm-none-eabi/10.3.1/../../../arm-none-eabi/lib/thumb/v7-m/nofp/libnosys.a(kill.o)
                                         0x24 (size before relaxing)
 .stab          0x0000000000000084       0x18 /usr/lib/gcc/arm-none-eabi/10.3.1/../../../arm-none-eabi/lib/thumb/v7-m/nofp/libnosys.a(lseek.o)
                                         0x24 (size before relaxing)
 .stab          0x000000000000009c       0x18 /usr/lib/gcc/arm-none-eabi/10.3.1/../../../arm-none-eabi/lib/thumb/v7-m/nofp/libnosys.a(read.o)
                                         0x24 (size before relaxing)

.stabstr        0x0000000000000000      0x183
 .stabstr       0x0000000000000000      0x183 /usr/lib/gcc/arm-none-eabi/10.3.1/../../../arm-none-eabi/lib/thumb/v7-m/nofp/libnosys.a(close.o)
